---
triple:          'arm64-apple-darwin'
binary-path:     app
relocations:
  - { offsetInCU: 0x2F39, offset: 0x2F39, size: 0x8, addend: 0x0, symName: __ZN11IndexBufferC2EPKjj, symObjAddr: 0x0, symBinAddr: 0x1000031A0, symSize: 0x140 }
  - { offsetInCU: 0x2F7F, offset: 0x2F7F, size: 0x8, addend: 0x0, symName: __ZN11IndexBufferC1EPKjj, symObjAddr: 0x140, symBinAddr: 0x1000032E0, symSize: 0x3C }
  - { offsetInCU: 0x2FC5, offset: 0x2FC5, size: 0x8, addend: 0x0, symName: __ZN11IndexBufferD2Ev, symObjAddr: 0x17C, symBinAddr: 0x10000331C, symSize: 0x9C }
  - { offsetInCU: 0x2FEF, offset: 0x2FEF, size: 0x8, addend: 0x0, symName: __ZN11IndexBufferD1Ev, symObjAddr: 0x224, symBinAddr: 0x1000033C4, symSize: 0x2C }
  - { offsetInCU: 0x3019, offset: 0x3019, size: 0x8, addend: 0x0, symName: __ZNK11IndexBuffer4BindEv, symObjAddr: 0x250, symBinAddr: 0x1000033F0, symSize: 0x78 }
  - { offsetInCU: 0x303F, offset: 0x303F, size: 0x8, addend: 0x0, symName: __ZNK11IndexBuffer6UnbindEv, symObjAddr: 0x2C8, symBinAddr: 0x100003468, symSize: 0x6C }
  - { offsetInCU: 0x5C, offset: 0x30CB, size: 0x8, addend: 0x0, symName: __ZNSt3__119piecewise_constructE, symObjAddr: 0x7182, symBinAddr: 0x100013974, symSize: 0x0 }
  - { offsetInCU: 0xF426, offset: 0x12495, size: 0x8, addend: 0x0, symName: __ZNSt3__124__put_character_sequenceB8ue170006IcNS_11char_traitsIcEEEERNS_13basic_ostreamIT_T0_EES7_PKS4_m, symObjAddr: 0x5594, symBinAddr: 0x100008A5C, symSize: 0x1EC }
  - { offsetInCU: 0x11E42, offset: 0x14EB1, size: 0x8, addend: 0x0, symName: __ZNSt3__1eqB8ue170006ERKNS_19__hash_map_iteratorINS_15__hash_iteratorIPNS_11__hash_nodeINS_17__hash_value_typeINS_12basic_stringIcNS_11char_traitsIcEENS_9allocatorIcEEEEiEEPvEEEEEESH_, symObjAddr: 0xA40, symBinAddr: 0x100003F08, symSize: 0x30 }
  - { offsetInCU: 0x11E7F, offset: 0x14EEE, size: 0x8, addend: 0x0, symName: __ZNSt3__1lsB8ue170006INS_11char_traitsIcEEEERNS_13basic_ostreamIcT_EES6_PKc, symObjAddr: 0xB68, symBinAddr: 0x100004030, symSize: 0x48 }
  - { offsetInCU: 0x11EC5, offset: 0x14F34, size: 0x8, addend: 0x0, symName: __ZNSt3__1lsB8ue170006IcNS_11char_traitsIcEENS_9allocatorIcEEEERNS_13basic_ostreamIT_T0_EES9_RKNS_12basic_stringIS6_S7_T1_EE, symObjAddr: 0xBB0, symBinAddr: 0x100004078, symSize: 0x4C }
  - { offsetInCU: 0x132AD, offset: 0x1631C, size: 0x8, addend: 0x0, symName: __ZNSt3__17getlineB8ue170006IcNS_11char_traitsIcEENS_9allocatorIcEEEERNS_13basic_istreamIT_T0_EES9_RNS_12basic_stringIS6_S7_T1_EE, symObjAddr: 0xEBC, symBinAddr: 0x100004384, symSize: 0x5C }
  - { offsetInCU: 0x13305, offset: 0x16374, size: 0x8, addend: 0x0, symName: __ZNSt3__1lsB8ue170006INS_11char_traitsIcEEEERNS_13basic_ostreamIcT_EES6_c, symObjAddr: 0xF44, symBinAddr: 0x10000440C, symSize: 0x34 }
  - { offsetInCU: 0x13361, offset: 0x163D0, size: 0x8, addend: 0x0, symName: __ZNSt3__14endlB8ue170006IcNS_11char_traitsIcEEEERNS_13basic_ostreamIT_T0_EES7_, symObjAddr: 0x13A4, symBinAddr: 0x10000486C, symSize: 0x58 }
  - { offsetInCU: 0x133A1, offset: 0x16410, size: 0x8, addend: 0x0, symName: __ZNSt3__112__to_addressB8ue170006IKcEEPT_S3_, symObjAddr: 0x145C, symBinAddr: 0x100004924, symSize: 0x14 }
  - { offsetInCU: 0x1343D, offset: 0x164AC, size: 0x8, addend: 0x0, symName: __ZNSt3__110destroy_atB8ue170006INS_4pairIKNS_12basic_stringIcNS_11char_traitsIcEENS_9allocatorIcEEEEiEELi0EEEvPT_, symObjAddr: 0x21FC, symBinAddr: 0x1000056C4, symSize: 0x24 }
  - { offsetInCU: 0x13475, offset: 0x164E4, size: 0x8, addend: 0x0, symName: __ZNSt3__112__destroy_atB8ue170006INS_4pairIKNS_12basic_stringIcNS_11char_traitsIcEENS_9allocatorIcEEEEiEELi0EEEvPT_, symObjAddr: 0x2220, symBinAddr: 0x1000056E8, symSize: 0x24 }
  - { offsetInCU: 0x134AD, offset: 0x1651C, size: 0x8, addend: 0x0, symName: __ZNSt3__17launderB8ue170006INS_4pairIKNS_12basic_stringIcNS_11char_traitsIcEENS_9allocatorIcEEEEiEEEEPT_SB_, symObjAddr: 0x22C0, symBinAddr: 0x100005788, symSize: 0x24 }
  - { offsetInCU: 0x134E4, offset: 0x16553, size: 0x8, addend: 0x0, symName: __ZNSt3__19__launderB8ue170006INS_4pairIKNS_12basic_stringIcNS_11char_traitsIcEENS_9allocatorIcEEEEiEEEEPT_SB_, symObjAddr: 0x22E4, symBinAddr: 0x1000057AC, symSize: 0x14 }
  - { offsetInCU: 0x1351C, offset: 0x1658B, size: 0x8, addend: 0x0, symName: __ZNSt3__119__libcpp_deallocateB8ue170006EPvmm, symObjAddr: 0x233C, symBinAddr: 0x100005804, symSize: 0x60 }
  - { offsetInCU: 0x13583, offset: 0x165F2, size: 0x8, addend: 0x0, symName: __ZNSt3__124__is_overaligned_for_newB8ue170006Em, symObjAddr: 0x239C, symBinAddr: 0x100005864, symSize: 0x20 }
  - { offsetInCU: 0x135B2, offset: 0x16621, size: 0x8, addend: 0x0, symName: __ZNSt3__127__do_deallocate_handle_sizeB8ue170006IJSt11align_val_tEEEvPvmDpT_, symObjAddr: 0x23BC, symBinAddr: 0x100005884, symSize: 0x30 }
  - { offsetInCU: 0x13606, offset: 0x16675, size: 0x8, addend: 0x0, symName: __ZNSt3__127__do_deallocate_handle_sizeB8ue170006IJEEEvPvmDpT_, symObjAddr: 0x23EC, symBinAddr: 0x1000058B4, symSize: 0x28 }
  - { offsetInCU: 0x13645, offset: 0x166B4, size: 0x8, addend: 0x0, symName: __ZNSt3__124__libcpp_operator_deleteB8ue170006IJPvSt11align_val_tEEEvDpT_, symObjAddr: 0x2414, symBinAddr: 0x1000058DC, symSize: 0x2C }
  - { offsetInCU: 0x1368F, offset: 0x166FE, size: 0x8, addend: 0x0, symName: __ZNSt3__124__libcpp_operator_deleteB8ue170006IJPvEEEvDpT_, symObjAddr: 0x2440, symBinAddr: 0x100005908, symSize: 0x24 }
  - { offsetInCU: 0x136C5, offset: 0x16734, size: 0x8, addend: 0x0, symName: __ZNSt3__116__constrain_hashB8ue170006Emm, symObjAddr: 0x296C, symBinAddr: 0x100005E34, symSize: 0x98 }
  - { offsetInCU: 0x13700, offset: 0x1676F, size: 0x8, addend: 0x0, symName: __ZNSt3__116__do_string_hashB8ue170006IPKcEEmT_S3_, symObjAddr: 0x2BBC, symBinAddr: 0x100006084, symSize: 0x3C }
  - { offsetInCU: 0x13746, offset: 0x167B5, size: 0x8, addend: 0x0, symName: __ZNSt3__110__loadwordB8ue170006ImEET_PKv, symObjAddr: 0x3604, symBinAddr: 0x100006ACC, symSize: 0x20 }
  - { offsetInCU: 0x1378B, offset: 0x167FA, size: 0x8, addend: 0x0, symName: __ZNSt3__14swapB8ue170006ImEENS_9enable_ifIXaasr21is_move_constructibleIT_EE5valuesr18is_move_assignableIS2_EE5valueEvE4typeERS2_S5_, symObjAddr: 0x37C0, symBinAddr: 0x100006C88, symSize: 0x3C }
  - { offsetInCU: 0x137DE, offset: 0x1684D, size: 0x8, addend: 0x0, symName: __ZNSt3__110__loadwordB8ue170006IjEET_PKv, symObjAddr: 0x3850, symBinAddr: 0x100006D18, symSize: 0x20 }
  - { offsetInCU: 0x13823, offset: 0x16892, size: 0x8, addend: 0x0, symName: __ZNSt3__1eqB8ue170006INS_9allocatorIcEEEEbRKNS_12basic_stringIcNS_11char_traitsIcEET_EES9_, symObjAddr: 0x3B9C, symBinAddr: 0x100007064, symSize: 0x148 }
  - { offsetInCU: 0x13896, offset: 0x16905, size: 0x8, addend: 0x0, symName: __ZNSt3__17launderB8ue170006IKNS_4pairIKNS_12basic_stringIcNS_11char_traitsIcEENS_9allocatorIcEEEEiEEEEPT_SC_, symObjAddr: 0x3D18, symBinAddr: 0x1000071E0, symSize: 0x24 }
  - { offsetInCU: 0x138CD, offset: 0x1693C, size: 0x8, addend: 0x0, symName: __ZNSt3__19__launderB8ue170006IKNS_4pairIKNS_12basic_stringIcNS_11char_traitsIcEENS_9allocatorIcEEEEiEEEEPT_SC_, symObjAddr: 0x3D3C, symBinAddr: 0x100007204, symSize: 0x14 }
  - { offsetInCU: 0x13905, offset: 0x16974, size: 0x8, addend: 0x0, symName: __ZNSt3__1eqB8ue170006ERKNS_15__hash_iteratorIPNS_11__hash_nodeINS_17__hash_value_typeINS_12basic_stringIcNS_11char_traitsIcEENS_9allocatorIcEEEEiEEPvEEEESF_, symObjAddr: 0x3D90, symBinAddr: 0x100007258, symSize: 0x30 }
  - { offsetInCU: 0x1397A, offset: 0x169E9, size: 0x8, addend: 0x0, symName: __ZNSt3__116forward_as_tupleB8ue170006IJRKNS_12basic_stringIcNS_11char_traitsIcEENS_9allocatorIcEEEEEEENS_5tupleIJDpOT_EEESC_, symObjAddr: 0x4278, symBinAddr: 0x100007740, symSize: 0x2C }
  - { offsetInCU: 0x139B3, offset: 0x16A22, size: 0x8, addend: 0x0, symName: __ZNSt3__116forward_as_tupleB8ue170006IJEEENS_5tupleIJDpOT_EEES4_, symObjAddr: 0x42A4, symBinAddr: 0x10000776C, symSize: 0x4 }
  - { offsetInCU: 0x139D8, offset: 0x16A47, size: 0x8, addend: 0x0, symName: __ZNSt3__13maxB8ue170006ImEERKT_S3_S3_, symObjAddr: 0x44A4, symBinAddr: 0x10000796C, symSize: 0x2C }
  - { offsetInCU: 0x13A1C, offset: 0x16A8B, size: 0x8, addend: 0x0, symName: __ZNSt3__116__is_hash_power2B8ue170006Em, symObjAddr: 0x44D0, symBinAddr: 0x100007998, symSize: 0x50 }
  - { offsetInCU: 0x13A67, offset: 0x16AD6, size: 0x8, addend: 0x0, symName: __ZNSt3__117__libcpp_allocateB8ue170006Emm, symObjAddr: 0x4824, symBinAddr: 0x100007CEC, symSize: 0x60 }
  - { offsetInCU: 0x13AC2, offset: 0x16B31, size: 0x8, addend: 0x0, symName: __ZNSt3__121__libcpp_operator_newB8ue170006IJmSt11align_val_tEEEPvDpT_, symObjAddr: 0x48A0, symBinAddr: 0x100007D68, symSize: 0x2C }
  - { offsetInCU: 0x13B0F, offset: 0x16B7E, size: 0x8, addend: 0x0, symName: __ZNSt3__121__libcpp_operator_newB8ue170006IJmEEEPvDpT_, symObjAddr: 0x48CC, symBinAddr: 0x100007D94, symSize: 0x24 }
  - { offsetInCU: 0x13B6F, offset: 0x16BDE, size: 0x8, addend: 0x0, symName: __ZNSt3__112construct_atB8ue170006INS_4pairIKNS_12basic_stringIcNS_11char_traitsIcEENS_9allocatorIcEEEEiEEJRKNS_21piecewise_construct_tENS_5tupleIJRS8_EEENSD_IJEEEEPS9_EEPT_SJ_DpOT0_, symObjAddr: 0x4A3C, symBinAddr: 0x100007F04, symSize: 0x50 }
  - { offsetInCU: 0x13C14, offset: 0x16C83, size: 0x8, addend: 0x0, symName: __ZNSt3__13getB8ue170006ILm0EJRKNS_12basic_stringIcNS_11char_traitsIcEENS_9allocatorIcEEEEEEERNS_13tuple_elementIXT_ENS_5tupleIJDpT0_EEEE4typeERSD_, symObjAddr: 0x4B4C, symBinAddr: 0x100008014, symSize: 0x24 }
  - { offsetInCU: 0x13C57, offset: 0x16CC6, size: 0x8, addend: 0x0, symName: __ZNSt3__116__next_hash_pow2B8ue170006Em, symObjAddr: 0x5050, symBinAddr: 0x100008518, symSize: 0x6C }
  - { offsetInCU: 0x13CA2, offset: 0x16D11, size: 0x8, addend: 0x0, symName: __ZNSt3__112__libcpp_clzB8ue170006Em, symObjAddr: 0x5204, symBinAddr: 0x1000086CC, symSize: 0x1C }
  - { offsetInCU: 0x13CCF, offset: 0x16D3E, size: 0x8, addend: 0x0, symName: __ZNSt3__13maxB8ue170006ImNS_6__lessIvvEEEERKT_S5_S5_T0_, symObjAddr: 0x5220, symBinAddr: 0x1000086E8, symSize: 0x54 }
  - { offsetInCU: 0x13DC8, offset: 0x16E37, size: 0x8, addend: 0x0, symName: __ZNSt3__116__pad_and_outputB8ue170006IcNS_11char_traitsIcEEEENS_19ostreambuf_iteratorIT_T0_EES6_PKS4_S8_S8_RNS_8ios_baseES4_, symObjAddr: 0x57D0, symBinAddr: 0x100008C98, symSize: 0x240 }
  - { offsetInCU: 0x13E97, offset: 0x16F06, size: 0x8, addend: 0x0, symName: __ZNSt3__112__to_addressB8ue170006IcEEPT_S2_, symObjAddr: 0x5C40, symBinAddr: 0x100009108, symSize: 0x14 }
  - { offsetInCU: 0x13ECD, offset: 0x16F3C, size: 0x8, addend: 0x0, symName: __ZNSt3__19use_facetB8ue170006INS_5ctypeIcEEEERKT_RKNS_6localeE, symObjAddr: 0x5E50, symBinAddr: 0x100009318, symSize: 0x2C }
  - { offsetInCU: 0x1439B, offset: 0x1740A, size: 0x8, addend: 0x0, symName: __ZNSt3__118__constexpr_strlenB8ue170006EPKc, symObjAddr: 0x5EE8, symBinAddr: 0x1000093B0, symSize: 0x24 }
  - { offsetInCU: 0x143C8, offset: 0x17437, size: 0x8, addend: 0x0, symName: __ZNSt3__17getlineB8ue170006IcNS_11char_traitsIcEENS_9allocatorIcEEEERNS_13basic_istreamIT_T0_EES9_RNS_12basic_stringIS6_S7_T1_EES6_, symObjAddr: 0x61D4, symBinAddr: 0x10000969C, symSize: 0x238 }
  - { offsetInCU: 0x14486, offset: 0x174F5, size: 0x8, addend: 0x0, symName: __ZNSt3__110to_addressB8ue170006IcEEDaPT_, symObjAddr: 0x6B8C, symBinAddr: 0x10000A054, symSize: 0x24 }
  - { offsetInCU: 0x147D5, offset: 0x17844, size: 0x8, addend: 0x0, symName: __ZSt28__throw_bad_array_new_lengthB8ue170006v, symObjAddr: 0x47F0, symBinAddr: 0x100007CB8, symSize: 0x34 }
  - { offsetInCU: 0x1765F, offset: 0x1A6CE, size: 0x8, addend: 0x0, symName: __ZN6ShaderC2ERKNSt3__112basic_stringIcNS0_11char_traitsIcEENS0_9allocatorIcEEEES8_, symObjAddr: 0x0, symBinAddr: 0x1000034D4, symSize: 0x108 }
  - { offsetInCU: 0x176BA, offset: 0x1A729, size: 0x8, addend: 0x0, symName: __ZNSt3__113unordered_mapINS_12basic_stringIcNS_11char_traitsIcEENS_9allocatorIcEEEEiNS_4hashIS6_EENS_8equal_toIS6_EENS4_INS_4pairIKS6_iEEEEEC1B8ue170006Ev, symObjAddr: 0x108, symBinAddr: 0x1000035DC, symSize: 0x2C }
  - { offsetInCU: 0x176E3, offset: 0x1A752, size: 0x8, addend: 0x0, symName: __ZN6Shader11ParseShaderERKNSt3__112basic_stringIcNS0_11char_traitsIcEENS0_9allocatorIcEEEES8_, symObjAddr: 0x134, symBinAddr: 0x100003608, symSize: 0x284 }
  - { offsetInCU: 0x17787, offset: 0x1A7F6, size: 0x8, addend: 0x0, symName: __ZN6Shader12CreateShaderERKNSt3__112basic_stringIcNS0_11char_traitsIcEENS0_9allocatorIcEEEES8_, symObjAddr: 0x3B8, symBinAddr: 0x10000388C, symSize: 0x244 }
  - { offsetInCU: 0x177FB, offset: 0x1A86A, size: 0x8, addend: 0x0, symName: __ZN19ShaderProgramSourceD1Ev, symObjAddr: 0x5FC, symBinAddr: 0x100003AD0, symSize: 0x2C }
  - { offsetInCU: 0x17825, offset: 0x1A894, size: 0x8, addend: 0x0, symName: __ZNSt3__113unordered_mapINS_12basic_stringIcNS_11char_traitsIcEENS_9allocatorIcEEEEiNS_4hashIS6_EENS_8equal_toIS6_EENS4_INS_4pairIKS6_iEEEEED1B8ue170006Ev, symObjAddr: 0x628, symBinAddr: 0x100003AFC, symSize: 0x2C }
  - { offsetInCU: 0x1784E, offset: 0x1A8BD, size: 0x8, addend: 0x0, symName: __ZN6ShaderC1ERKNSt3__112basic_stringIcNS0_11char_traitsIcEENS0_9allocatorIcEEEES8_, symObjAddr: 0x654, symBinAddr: 0x100003B28, symSize: 0x3C }
  - { offsetInCU: 0x17894, offset: 0x1A903, size: 0x8, addend: 0x0, symName: __ZN6ShaderD2Ev, symObjAddr: 0x690, symBinAddr: 0x100003B64, symSize: 0xBC }
  - { offsetInCU: 0x178BE, offset: 0x1A92D, size: 0x8, addend: 0x0, symName: __ZN6ShaderD1Ev, symObjAddr: 0x758, symBinAddr: 0x100003C20, symSize: 0x2C }
  - { offsetInCU: 0x178E8, offset: 0x1A957, size: 0x8, addend: 0x0, symName: __ZNK6Shader4BindEv, symObjAddr: 0x784, symBinAddr: 0x100003C4C, symSize: 0x74 }
  - { offsetInCU: 0x1790E, offset: 0x1A97D, size: 0x8, addend: 0x0, symName: __ZNK6Shader6UnbindEv, symObjAddr: 0x7F8, symBinAddr: 0x100003CC0, symSize: 0x68 }
  - { offsetInCU: 0x17934, offset: 0x1A9A3, size: 0x8, addend: 0x0, symName: __ZN6Shader12SetUniform4fERKNSt3__112basic_stringIcNS0_11char_traitsIcEENS0_9allocatorIcEEEEffff, symObjAddr: 0x860, symBinAddr: 0x100003D28, symSize: 0xA4 }
  - { offsetInCU: 0x179A0, offset: 0x1AA0F, size: 0x8, addend: 0x0, symName: __ZN6Shader18GetUniformLocationERKNSt3__112basic_stringIcNS0_11char_traitsIcEENS0_9allocatorIcEEEE, symObjAddr: 0x904, symBinAddr: 0x100003DCC, symSize: 0x13C }
  - { offsetInCU: 0x179E3, offset: 0x1AA52, size: 0x8, addend: 0x0, symName: __ZNSt3__113unordered_mapINS_12basic_stringIcNS_11char_traitsIcEENS_9allocatorIcEEEEiNS_4hashIS6_EENS_8equal_toIS6_EENS4_INS_4pairIKS6_iEEEEE4findB8ue170006ERSC_, symObjAddr: 0xA70, symBinAddr: 0x100003F38, symSize: 0x40 }
  - { offsetInCU: 0x17A17, offset: 0x1AA86, size: 0x8, addend: 0x0, symName: __ZNSt3__113unordered_mapINS_12basic_stringIcNS_11char_traitsIcEENS_9allocatorIcEEEEiNS_4hashIS6_EENS_8equal_toIS6_EENS4_INS_4pairIKS6_iEEEEE3endB8ue170006Ev, symObjAddr: 0xAB0, symBinAddr: 0x100003F78, symSize: 0x38 }
  - { offsetInCU: 0x17A3C, offset: 0x1AAAB, size: 0x8, addend: 0x0, symName: __ZNSt3__113unordered_mapINS_12basic_stringIcNS_11char_traitsIcEENS_9allocatorIcEEEEiNS_4hashIS6_EENS_8equal_toIS6_EENS4_INS_4pairIKS6_iEEEEEixERSC_, symObjAddr: 0xAE8, symBinAddr: 0x100003FB0, symSize: 0x80 }
  - { offsetInCU: 0x17A72, offset: 0x1AAE1, size: 0x8, addend: 0x0, symName: __ZNKSt3__112basic_stringIcNS_11char_traitsIcEENS_9allocatorIcEEE5c_strB8ue170006Ev, symObjAddr: 0xBFC, symBinAddr: 0x1000040C4, symSize: 0x24 }
  - { offsetInCU: 0x17BC6, offset: 0x1AC35, size: 0x8, addend: 0x0, symName: __ZNSt3__114basic_ifstreamIcNS_11char_traitsIcEEEC1ERKNS_12basic_stringIcS2_NS_9allocatorIcEEEEj, symObjAddr: 0xC20, symBinAddr: 0x1000040E8, symSize: 0x16C }
  - { offsetInCU: 0x17C0F, offset: 0x1AC7E, size: 0x8, addend: 0x0, symName: __ZNSt3__112basic_stringIcNS_11char_traitsIcEENS_9allocatorIcEEEC1B8ue170006Ev, symObjAddr: 0xD8C, symBinAddr: 0x100004254, symSize: 0x2C }
  - { offsetInCU: 0x17CB6, offset: 0x1AD25, size: 0x8, addend: 0x0, symName: __ZNSt3__118basic_stringstreamIcNS_11char_traitsIcEENS_9allocatorIcEEEC1B8ue170006Ev, symObjAddr: 0xDB8, symBinAddr: 0x100004280, symSize: 0x104 }
  - { offsetInCU: 0x17CDF, offset: 0x1AD4E, size: 0x8, addend: 0x0, symName: __ZNKSt3__19basic_iosIcNS_11char_traitsIcEEEcvbB8ue170006Ev, symObjAddr: 0xF18, symBinAddr: 0x1000043E0, symSize: 0x2C }
  - { offsetInCU: 0x17D04, offset: 0x1AD73, size: 0x8, addend: 0x0, symName: __ZNKRSt3__118basic_stringstreamIcNS_11char_traitsIcEENS_9allocatorIcEEE3strB8ue170006Ev, symObjAddr: 0xF78, symBinAddr: 0x100004440, symSize: 0x30 }
  - { offsetInCU: 0x17D2E, offset: 0x1AD9D, size: 0x8, addend: 0x0, symName: __ZNSt3__118basic_stringstreamIcNS_11char_traitsIcEENS_9allocatorIcEEED1Ev, symObjAddr: 0xFA8, symBinAddr: 0x100004470, symSize: 0x40 }
  - { offsetInCU: 0x17D5F, offset: 0x1ADCE, size: 0x8, addend: 0x0, symName: __ZNSt3__114basic_ifstreamIcNS_11char_traitsIcEEED1Ev, symObjAddr: 0xFE8, symBinAddr: 0x1000044B0, symSize: 0x40 }
  - { offsetInCU: 0x17D8B, offset: 0x1ADFA, size: 0x8, addend: 0x0, symName: __ZN6Shader13CompileShaderEjRKNSt3__112basic_stringIcNS0_11char_traitsIcEENS0_9allocatorIcEEEE, symObjAddr: 0x1028, symBinAddr: 0x1000044F0, symSize: 0x350 }
  - { offsetInCU: 0x17E28, offset: 0x1AE97, size: 0x8, addend: 0x0, symName: __ZNSt3__113basic_ostreamIcNS_11char_traitsIcEEElsB8ue170006EPFRS3_S4_E, symObjAddr: 0x1378, symBinAddr: 0x100004840, symSize: 0x2C }
  - { offsetInCU: 0x17E5B, offset: 0x1AECA, size: 0x8, addend: 0x0, symName: __ZN19ShaderProgramSourceD2Ev, symObjAddr: 0x13FC, symBinAddr: 0x1000048C4, symSize: 0x38 }
  - { offsetInCU: 0x17E85, offset: 0x1AEF4, size: 0x8, addend: 0x0, symName: __ZNKSt3__112basic_stringIcNS_11char_traitsIcEENS_9allocatorIcEEE4dataB8ue170006Ev, symObjAddr: 0x1434, symBinAddr: 0x1000048FC, symSize: 0x28 }
  - { offsetInCU: 0x17EAA, offset: 0x1AF19, size: 0x8, addend: 0x0, symName: __ZNKSt3__112basic_stringIcNS_11char_traitsIcEENS_9allocatorIcEEE13__get_pointerB8ue170006Ev, symObjAddr: 0x1470, symBinAddr: 0x100004938, symSize: 0x54 }
  - { offsetInCU: 0x17ECF, offset: 0x1AF3E, size: 0x8, addend: 0x0, symName: __ZNKSt3__112basic_stringIcNS_11char_traitsIcEENS_9allocatorIcEEE9__is_longB8ue170006Ev, symObjAddr: 0x14C4, symBinAddr: 0x10000498C, symSize: 0x38 }
  - { offsetInCU: 0x17EF4, offset: 0x1AF63, size: 0x8, addend: 0x0, symName: __ZNKSt3__112basic_stringIcNS_11char_traitsIcEENS_9allocatorIcEEE18__get_long_pointerB8ue170006Ev, symObjAddr: 0x14FC, symBinAddr: 0x1000049C4, symSize: 0x28 }
  - { offsetInCU: 0x17F19, offset: 0x1AF88, size: 0x8, addend: 0x0, symName: __ZNKSt3__112basic_stringIcNS_11char_traitsIcEENS_9allocatorIcEEE19__get_short_pointerB8ue170006Ev, symObjAddr: 0x1524, symBinAddr: 0x1000049EC, symSize: 0x28 }
  - { offsetInCU: 0x17F3E, offset: 0x1AFAD, size: 0x8, addend: 0x0, symName: __ZNKSt3__117__compressed_pairINS_12basic_stringIcNS_11char_traitsIcEENS_9allocatorIcEEE5__repES5_E5firstB8ue170006Ev, symObjAddr: 0x154C, symBinAddr: 0x100004A14, symSize: 0x24 }
  - { offsetInCU: 0x17F63, offset: 0x1AFD2, size: 0x8, addend: 0x0, symName: __ZNKSt3__122__compressed_pair_elemINS_12basic_stringIcNS_11char_traitsIcEENS_9allocatorIcEEE5__repELi0ELb0EE5__getB8ue170006Ev, symObjAddr: 0x1570, symBinAddr: 0x100004A38, symSize: 0x14 }
  - { offsetInCU: 0x17F88, offset: 0x1AFF7, size: 0x8, addend: 0x0, symName: __ZNSt3__114pointer_traitsIPKcE10pointer_toB8ue170006ERS1_, symObjAddr: 0x1584, symBinAddr: 0x100004A4C, symSize: 0x14 }
  - { offsetInCU: 0x17FAB, offset: 0x1B01A, size: 0x8, addend: 0x0, symName: __ZNSt3__112basic_stringIcNS_11char_traitsIcEENS_9allocatorIcEEEC2B8ue170006Ev, symObjAddr: 0x1598, symBinAddr: 0x100004A60, symSize: 0x48 }
  - { offsetInCU: 0x17FDA, offset: 0x1B049, size: 0x8, addend: 0x0, symName: __ZNSt3__117__compressed_pairINS_12basic_stringIcNS_11char_traitsIcEENS_9allocatorIcEEE5__repES5_EC1B8ue170006INS_18__default_init_tagESA_EEOT_OT0_, symObjAddr: 0x15E0, symBinAddr: 0x100004AA8, symSize: 0x3C }
  - { offsetInCU: 0x18031, offset: 0x1B0A0, size: 0x8, addend: 0x0, symName: __ZNSt3__112basic_stringIcNS_11char_traitsIcEENS_9allocatorIcEEE14__default_initB8ue170006Ev, symObjAddr: 0x161C, symBinAddr: 0x100004AE4, symSize: 0x40 }
  - { offsetInCU: 0x18056, offset: 0x1B0C5, size: 0x8, addend: 0x0, symName: __ZNSt3__117__compressed_pairINS_12basic_stringIcNS_11char_traitsIcEENS_9allocatorIcEEE5__repES5_EC2B8ue170006INS_18__default_init_tagESA_EEOT_OT0_, symObjAddr: 0x165C, symBinAddr: 0x100004B24, symSize: 0x3C }
  - { offsetInCU: 0x180AD, offset: 0x1B11C, size: 0x8, addend: 0x0, symName: __ZNSt3__122__compressed_pair_elemINS_12basic_stringIcNS_11char_traitsIcEENS_9allocatorIcEEE5__repELi0ELb0EEC2B8ue170006ENS_18__default_init_tagE, symObjAddr: 0x1698, symBinAddr: 0x100004B60, symSize: 0x14 }
  - { offsetInCU: 0x180E1, offset: 0x1B150, size: 0x8, addend: 0x0, symName: __ZNSt3__122__compressed_pair_elemINS_9allocatorIcEELi1ELb1EEC2B8ue170006ENS_18__default_init_tagE, symObjAddr: 0x16AC, symBinAddr: 0x100004B74, symSize: 0x2C }
  - { offsetInCU: 0x18115, offset: 0x1B184, size: 0x8, addend: 0x0, symName: __ZNSt3__19allocatorIcEC2B8ue170006Ev, symObjAddr: 0x16D8, symBinAddr: 0x100004BA0, symSize: 0x2C }
  - { offsetInCU: 0x1813E, offset: 0x1B1AD, size: 0x8, addend: 0x0, symName: __ZNSt3__116__non_trivial_ifILb1ENS_9allocatorIcEEEC2B8ue170006Ev, symObjAddr: 0x1704, symBinAddr: 0x100004BCC, symSize: 0x14 }
  - { offsetInCU: 0x18167, offset: 0x1B1D6, size: 0x8, addend: 0x0, symName: __ZNSt3__117__compressed_pairINS_12basic_stringIcNS_11char_traitsIcEENS_9allocatorIcEEE5__repES5_E5firstB8ue170006Ev, symObjAddr: 0x1718, symBinAddr: 0x100004BE0, symSize: 0x24 }
  - { offsetInCU: 0x1818C, offset: 0x1B1FB, size: 0x8, addend: 0x0, symName: __ZNSt3__122__compressed_pair_elemINS_12basic_stringIcNS_11char_traitsIcEENS_9allocatorIcEEE5__repELi0ELb0EE5__getB8ue170006Ev, symObjAddr: 0x173C, symBinAddr: 0x100004C04, symSize: 0x14 }
  - { offsetInCU: 0x181B1, offset: 0x1B220, size: 0x8, addend: 0x0, symName: __ZNSt3__118basic_stringstreamIcNS_11char_traitsIcEENS_9allocatorIcEEED2Ev, symObjAddr: 0x1750, symBinAddr: 0x100004C18, symSize: 0x6C }
  - { offsetInCU: 0x181E9, offset: 0x1B258, size: 0x8, addend: 0x0, symName: __ZThn16_NSt3__118basic_stringstreamIcNS_11char_traitsIcEENS_9allocatorIcEEED1Ev, symObjAddr: 0x17BC, symBinAddr: 0x100004C84, symSize: 0x1C }
  - { offsetInCU: 0x18200, offset: 0x1B26F, size: 0x8, addend: 0x0, symName: __ZTv0_n24_NSt3__118basic_stringstreamIcNS_11char_traitsIcEENS_9allocatorIcEEED1Ev, symObjAddr: 0x17D8, symBinAddr: 0x100004CA0, symSize: 0x28 }
  - { offsetInCU: 0x1821C, offset: 0x1B28B, size: 0x8, addend: 0x0, symName: __ZNSt3__115basic_stringbufIcNS_11char_traitsIcEENS_9allocatorIcEEED1Ev, symObjAddr: 0x1800, symBinAddr: 0x100004CC8, symSize: 0x2C }
  - { offsetInCU: 0x18248, offset: 0x1B2B7, size: 0x8, addend: 0x0, symName: __ZNSt3__115basic_stringbufIcNS_11char_traitsIcEENS_9allocatorIcEEED2Ev, symObjAddr: 0x182C, symBinAddr: 0x100004CF4, symSize: 0x48 }
  - { offsetInCU: 0x18274, offset: 0x1B2E3, size: 0x8, addend: 0x0, symName: __ZNSt3__114basic_ifstreamIcNS_11char_traitsIcEEED2Ev, symObjAddr: 0x1874, symBinAddr: 0x100004D3C, symSize: 0x64 }
  - { offsetInCU: 0x182AC, offset: 0x1B31B, size: 0x8, addend: 0x0, symName: __ZTv0_n24_NSt3__114basic_ifstreamIcNS_11char_traitsIcEEED1Ev, symObjAddr: 0x18D8, symBinAddr: 0x100004DA0, symSize: 0x28 }
  - { offsetInCU: 0x182C3, offset: 0x1B332, size: 0x8, addend: 0x0, symName: __ZNSt3__113unordered_mapINS_12basic_stringIcNS_11char_traitsIcEENS_9allocatorIcEEEEiNS_4hashIS6_EENS_8equal_toIS6_EENS4_INS_4pairIKS6_iEEEEEC2B8ue170006Ev, symObjAddr: 0x1900, symBinAddr: 0x100004DC8, symSize: 0x2C }
  - { offsetInCU: 0x182EC, offset: 0x1B35B, size: 0x8, addend: 0x0, symName: __ZNSt3__112__hash_tableINS_17__hash_value_typeINS_12basic_stringIcNS_11char_traitsIcEENS_9allocatorIcEEEEiEENS_22__unordered_map_hasherIS7_S8_NS_4hashIS7_EENS_8equal_toIS7_EELb1EEENS_21__unordered_map_equalIS7_S8_SD_SB_Lb1EEENS5_IS8_EEEC1Ev, symObjAddr: 0x192C, symBinAddr: 0x100004DF4, symSize: 0x2C }
  - { offsetInCU: 0x18317, offset: 0x1B386, size: 0x8, addend: 0x0, symName: __ZNSt3__112__hash_tableINS_17__hash_value_typeINS_12basic_stringIcNS_11char_traitsIcEENS_9allocatorIcEEEEiEENS_22__unordered_map_hasherIS7_S8_NS_4hashIS7_EENS_8equal_toIS7_EELb1EEENS_21__unordered_map_equalIS7_S8_SD_SB_Lb1EEENS5_IS8_EEEC2Ev, symObjAddr: 0x1958, symBinAddr: 0x100004E20, symSize: 0x7C }
  - { offsetInCU: 0x18342, offset: 0x1B3B1, size: 0x8, addend: 0x0, symName: __ZNSt3__110unique_ptrIA_PNS_16__hash_node_baseIPNS_11__hash_nodeINS_17__hash_value_typeINS_12basic_stringIcNS_11char_traitsIcEENS_9allocatorIcEEEEiEEPvEEEENS_25__bucket_list_deallocatorINS7_ISF_EEEEEC1B8ue170006ILb1EvEEv, symObjAddr: 0x19D4, symBinAddr: 0x100004E9C, symSize: 0x2C }
  - { offsetInCU: 0x18376, offset: 0x1B3E5, size: 0x8, addend: 0x0, symName: __ZNSt3__117__compressed_pairINS_16__hash_node_baseIPNS_11__hash_nodeINS_17__hash_value_typeINS_12basic_stringIcNS_11char_traitsIcEENS_9allocatorIcEEEEiEEPvEEEENS7_ISC_EEEC1B8ue170006ILb1EvEEv, symObjAddr: 0x1A00, symBinAddr: 0x100004EC8, symSize: 0x2C }
  - { offsetInCU: 0x183B0, offset: 0x1B41F, size: 0x8, addend: 0x0, symName: __ZNSt3__117__compressed_pairImNS_22__unordered_map_hasherINS_12basic_stringIcNS_11char_traitsIcEENS_9allocatorIcEEEENS_17__hash_value_typeIS7_iEENS_4hashIS7_EENS_8equal_toIS7_EELb1EEEEC1B8ue170006IiNS_18__default_init_tagEEEOT_OT0_, symObjAddr: 0x1A2C, symBinAddr: 0x100004EF4, symSize: 0x3C }
  - { offsetInCU: 0x1840D, offset: 0x1B47C, size: 0x8, addend: 0x0, symName: __ZNSt3__117__compressed_pairIfNS_21__unordered_map_equalINS_12basic_stringIcNS_11char_traitsIcEENS_9allocatorIcEEEENS_17__hash_value_typeIS7_iEENS_8equal_toIS7_EENS_4hashIS7_EELb1EEEEC1B8ue170006IfNS_18__default_init_tagEEEOT_OT0_, symObjAddr: 0x1A68, symBinAddr: 0x100004F30, symSize: 0x3C }
  - { offsetInCU: 0x18464, offset: 0x1B4D3, size: 0x8, addend: 0x0, symName: __ZNSt3__110unique_ptrIA_PNS_16__hash_node_baseIPNS_11__hash_nodeINS_17__hash_value_typeINS_12basic_stringIcNS_11char_traitsIcEENS_9allocatorIcEEEEiEEPvEEEENS_25__bucket_list_deallocatorINS7_ISF_EEEEEC2B8ue170006ILb1EvEEv, symObjAddr: 0x1AA4, symBinAddr: 0x100004F6C, symSize: 0x3C }
  - { offsetInCU: 0x1849E, offset: 0x1B50D, size: 0x8, addend: 0x0, symName: __ZNSt3__117__compressed_pairIPPNS_16__hash_node_baseIPNS_11__hash_nodeINS_17__hash_value_typeINS_12basic_stringIcNS_11char_traitsIcEENS_9allocatorIcEEEEiEEPvEEEENS_25__bucket_list_deallocatorINS7_ISF_EEEEEC1B8ue170006INS_16__value_init_tagESM_EEOT_OT0_, symObjAddr: 0x1AE0, symBinAddr: 0x100004FA8, symSize: 0x3C }
  - { offsetInCU: 0x184F5, offset: 0x1B564, size: 0x8, addend: 0x0, symName: __ZNSt3__117__compressed_pairIPPNS_16__hash_node_baseIPNS_11__hash_nodeINS_17__hash_value_typeINS_12basic_stringIcNS_11char_traitsIcEENS_9allocatorIcEEEEiEEPvEEEENS_25__bucket_list_deallocatorINS7_ISF_EEEEEC2B8ue170006INS_16__value_init_tagESM_EEOT_OT0_, symObjAddr: 0x1B1C, symBinAddr: 0x100004FE4, symSize: 0x40 }
  - { offsetInCU: 0x1854C, offset: 0x1B5BB, size: 0x8, addend: 0x0, symName: __ZNSt3__122__compressed_pair_elemIPPNS_16__hash_node_baseIPNS_11__hash_nodeINS_17__hash_value_typeINS_12basic_stringIcNS_11char_traitsIcEENS_9allocatorIcEEEEiEEPvEEEELi0ELb0EEC2B8ue170006ENS_16__value_init_tagE, symObjAddr: 0x1B5C, symBinAddr: 0x100005024, symSize: 0x18 }
  - { offsetInCU: 0x18580, offset: 0x1B5EF, size: 0x8, addend: 0x0, symName: __ZNSt3__122__compressed_pair_elemINS_25__bucket_list_deallocatorINS_9allocatorIPNS_16__hash_node_baseIPNS_11__hash_nodeINS_17__hash_value_typeINS_12basic_stringIcNS_11char_traitsIcEENS2_IcEEEEiEEPvEEEEEEEELi1ELb0EEC2B8ue170006ENS_16__value_init_tagE, symObjAddr: 0x1B74, symBinAddr: 0x10000503C, symSize: 0x2C }
  - { offsetInCU: 0x185B4, offset: 0x1B623, size: 0x8, addend: 0x0, symName: __ZNSt3__125__bucket_list_deallocatorINS_9allocatorIPNS_16__hash_node_baseIPNS_11__hash_nodeINS_17__hash_value_typeINS_12basic_stringIcNS_11char_traitsIcEENS1_IcEEEEiEEPvEEEEEEEC1B8ue170006Ev, symObjAddr: 0x1BA0, symBinAddr: 0x100005068, symSize: 0x2C }
  - { offsetInCU: 0x185DD, offset: 0x1B64C, size: 0x8, addend: 0x0, symName: __ZNSt3__125__bucket_list_deallocatorINS_9allocatorIPNS_16__hash_node_baseIPNS_11__hash_nodeINS_17__hash_value_typeINS_12basic_stringIcNS_11char_traitsIcEENS1_IcEEEEiEEPvEEEEEEEC2B8ue170006Ev, symObjAddr: 0x1BCC, symBinAddr: 0x100005094, symSize: 0x40 }
  - { offsetInCU: 0x18606, offset: 0x1B675, size: 0x8, addend: 0x0, symName: __ZNSt3__117__compressed_pairImNS_9allocatorIPNS_16__hash_node_baseIPNS_11__hash_nodeINS_17__hash_value_typeINS_12basic_stringIcNS_11char_traitsIcEENS1_IcEEEEiEEPvEEEEEEEC1B8ue170006IiNS_18__default_init_tagEEEOT_OT0_, symObjAddr: 0x1C0C, symBinAddr: 0x1000050D4, symSize: 0x3C }
  - { offsetInCU: 0x1865D, offset: 0x1B6CC, size: 0x8, addend: 0x0, symName: __ZNSt3__117__compressed_pairImNS_9allocatorIPNS_16__hash_node_baseIPNS_11__hash_nodeINS_17__hash_value_typeINS_12basic_stringIcNS_11char_traitsIcEENS1_IcEEEEiEEPvEEEEEEEC2B8ue170006IiNS_18__default_init_tagEEEOT_OT0_, symObjAddr: 0x1C48, symBinAddr: 0x100005110, symSize: 0x40 }
  - { offsetInCU: 0x186B4, offset: 0x1B723, size: 0x8, addend: 0x0, symName: __ZNSt3__122__compressed_pair_elemImLi0ELb0EEC2B8ue170006IivEEOT_, symObjAddr: 0x1C88, symBinAddr: 0x100005150, symSize: 0x24 }
  - { offsetInCU: 0x186F5, offset: 0x1B764, size: 0x8, addend: 0x0, symName: __ZNSt3__122__compressed_pair_elemINS_9allocatorIPNS_16__hash_node_baseIPNS_11__hash_nodeINS_17__hash_value_typeINS_12basic_stringIcNS_11char_traitsIcEENS1_IcEEEEiEEPvEEEEEELi1ELb1EEC2B8ue170006ENS_18__default_init_tagE, symObjAddr: 0x1CAC, symBinAddr: 0x100005174, symSize: 0x2C }
  - { offsetInCU: 0x18729, offset: 0x1B798, size: 0x8, addend: 0x0, symName: __ZNSt3__19allocatorIPNS_16__hash_node_baseIPNS_11__hash_nodeINS_17__hash_value_typeINS_12basic_stringIcNS_11char_traitsIcEENS0_IcEEEEiEEPvEEEEEC2B8ue170006Ev, symObjAddr: 0x1CD8, symBinAddr: 0x1000051A0, symSize: 0x2C }
  - { offsetInCU: 0x18752, offset: 0x1B7C1, size: 0x8, addend: 0x0, symName: __ZNSt3__116__non_trivial_ifILb1ENS_9allocatorIPNS_16__hash_node_baseIPNS_11__hash_nodeINS_17__hash_value_typeINS_12basic_stringIcNS_11char_traitsIcEENS1_IcEEEEiEEPvEEEEEEEC2B8ue170006Ev, symObjAddr: 0x1D04, symBinAddr: 0x1000051CC, symSize: 0x14 }
  - { offsetInCU: 0x1877B, offset: 0x1B7EA, size: 0x8, addend: 0x0, symName: __ZNSt3__117__compressed_pairINS_16__hash_node_baseIPNS_11__hash_nodeINS_17__hash_value_typeINS_12basic_stringIcNS_11char_traitsIcEENS_9allocatorIcEEEEiEEPvEEEENS7_ISC_EEEC2B8ue170006ILb1EvEEv, symObjAddr: 0x1D18, symBinAddr: 0x1000051E0, symSize: 0x34 }
  - { offsetInCU: 0x187AF, offset: 0x1B81E, size: 0x8, addend: 0x0, symName: __ZNSt3__122__compressed_pair_elemINS_16__hash_node_baseIPNS_11__hash_nodeINS_17__hash_value_typeINS_12basic_stringIcNS_11char_traitsIcEENS_9allocatorIcEEEEiEEPvEEEELi0ELb0EEC2B8ue170006ENS_16__value_init_tagE, symObjAddr: 0x1D4C, symBinAddr: 0x100005214, symSize: 0x2C }
  - { offsetInCU: 0x187E3, offset: 0x1B852, size: 0x8, addend: 0x0, symName: __ZNSt3__122__compressed_pair_elemINS_9allocatorINS_11__hash_nodeINS_17__hash_value_typeINS_12basic_stringIcNS_11char_traitsIcEENS1_IcEEEEiEEPvEEEELi1ELb1EEC2B8ue170006ENS_16__value_init_tagE, symObjAddr: 0x1D78, symBinAddr: 0x100005240, symSize: 0x2C }
  - { offsetInCU: 0x18817, offset: 0x1B886, size: 0x8, addend: 0x0, symName: __ZNSt3__116__hash_node_baseIPNS_11__hash_nodeINS_17__hash_value_typeINS_12basic_stringIcNS_11char_traitsIcEENS_9allocatorIcEEEEiEEPvEEEC1B8ue170006Ev, symObjAddr: 0x1DA4, symBinAddr: 0x10000526C, symSize: 0x2C }
  - { offsetInCU: 0x18840, offset: 0x1B8AF, size: 0x8, addend: 0x0, symName: __ZNSt3__116__hash_node_baseIPNS_11__hash_nodeINS_17__hash_value_typeINS_12basic_stringIcNS_11char_traitsIcEENS_9allocatorIcEEEEiEEPvEEEC2B8ue170006Ev, symObjAddr: 0x1DD0, symBinAddr: 0x100005298, symSize: 0x18 }
  - { offsetInCU: 0x18869, offset: 0x1B8D8, size: 0x8, addend: 0x0, symName: __ZNSt3__19allocatorINS_11__hash_nodeINS_17__hash_value_typeINS_12basic_stringIcNS_11char_traitsIcEENS0_IcEEEEiEEPvEEEC2B8ue170006Ev, symObjAddr: 0x1DE8, symBinAddr: 0x1000052B0, symSize: 0x2C }
  - { offsetInCU: 0x18892, offset: 0x1B901, size: 0x8, addend: 0x0, symName: __ZNSt3__116__non_trivial_ifILb1ENS_9allocatorINS_11__hash_nodeINS_17__hash_value_typeINS_12basic_stringIcNS_11char_traitsIcEENS1_IcEEEEiEEPvEEEEEC2B8ue170006Ev, symObjAddr: 0x1E14, symBinAddr: 0x1000052DC, symSize: 0x14 }
  - { offsetInCU: 0x188BB, offset: 0x1B92A, size: 0x8, addend: 0x0, symName: __ZNSt3__117__compressed_pairImNS_22__unordered_map_hasherINS_12basic_stringIcNS_11char_traitsIcEENS_9allocatorIcEEEENS_17__hash_value_typeIS7_iEENS_4hashIS7_EENS_8equal_toIS7_EELb1EEEEC2B8ue170006IiNS_18__default_init_tagEEEOT_OT0_, symObjAddr: 0x1E28, symBinAddr: 0x1000052F0, symSize: 0x40 }
  - { offsetInCU: 0x18912, offset: 0x1B981, size: 0x8, addend: 0x0, symName: __ZNSt3__122__compressed_pair_elemINS_22__unordered_map_hasherINS_12basic_stringIcNS_11char_traitsIcEENS_9allocatorIcEEEENS_17__hash_value_typeIS7_iEENS_4hashIS7_EENS_8equal_toIS7_EELb1EEELi1ELb1EEC2B8ue170006ENS_18__default_init_tagE, symObjAddr: 0x1E68, symBinAddr: 0x100005330, symSize: 0x2C }
  - { offsetInCU: 0x18946, offset: 0x1B9B5, size: 0x8, addend: 0x0, symName: __ZNSt3__122__unordered_map_hasherINS_12basic_stringIcNS_11char_traitsIcEENS_9allocatorIcEEEENS_17__hash_value_typeIS6_iEENS_4hashIS6_EENS_8equal_toIS6_EELb1EEC2B8ue170006Ev, symObjAddr: 0x1E94, symBinAddr: 0x10000535C, symSize: 0x14 }
  - { offsetInCU: 0x1896F, offset: 0x1B9DE, size: 0x8, addend: 0x0, symName: __ZNSt3__117__compressed_pairIfNS_21__unordered_map_equalINS_12basic_stringIcNS_11char_traitsIcEENS_9allocatorIcEEEENS_17__hash_value_typeIS7_iEENS_8equal_toIS7_EENS_4hashIS7_EELb1EEEEC2B8ue170006IfNS_18__default_init_tagEEEOT_OT0_, symObjAddr: 0x1EA8, symBinAddr: 0x100005370, symSize: 0x40 }
  - { offsetInCU: 0x189C6, offset: 0x1BA35, size: 0x8, addend: 0x0, symName: __ZNSt3__122__compressed_pair_elemIfLi0ELb0EEC2B8ue170006IfvEEOT_, symObjAddr: 0x1EE8, symBinAddr: 0x1000053B0, symSize: 0x24 }
  - { offsetInCU: 0x18A07, offset: 0x1BA76, size: 0x8, addend: 0x0, symName: __ZNSt3__122__compressed_pair_elemINS_21__unordered_map_equalINS_12basic_stringIcNS_11char_traitsIcEENS_9allocatorIcEEEENS_17__hash_value_typeIS7_iEENS_8equal_toIS7_EENS_4hashIS7_EELb1EEELi1ELb1EEC2B8ue170006ENS_18__default_init_tagE, symObjAddr: 0x1F0C, symBinAddr: 0x1000053D4, symSize: 0x2C }
  - { offsetInCU: 0x18A3B, offset: 0x1BAAA, size: 0x8, addend: 0x0, symName: __ZNSt3__121__unordered_map_equalINS_12basic_stringIcNS_11char_traitsIcEENS_9allocatorIcEEEENS_17__hash_value_typeIS6_iEENS_8equal_toIS6_EENS_4hashIS6_EELb1EEC2B8ue170006Ev, symObjAddr: 0x1F38, symBinAddr: 0x100005400, symSize: 0x14 }
  - { offsetInCU: 0x18A64, offset: 0x1BAD3, size: 0x8, addend: 0x0, symName: __ZNSt3__113unordered_mapINS_12basic_stringIcNS_11char_traitsIcEENS_9allocatorIcEEEEiNS_4hashIS6_EENS_8equal_toIS6_EENS4_INS_4pairIKS6_iEEEEED2B8ue170006Ev, symObjAddr: 0x1F4C, symBinAddr: 0x100005414, symSize: 0x2C }
  - { offsetInCU: 0x18A8D, offset: 0x1BAFC, size: 0x8, addend: 0x0, symName: __ZNSt3__112__hash_tableINS_17__hash_value_typeINS_12basic_stringIcNS_11char_traitsIcEENS_9allocatorIcEEEEiEENS_22__unordered_map_hasherIS7_S8_NS_4hashIS7_EENS_8equal_toIS7_EELb1EEENS_21__unordered_map_equalIS7_S8_SD_SB_Lb1EEENS5_IS8_EEED1Ev, symObjAddr: 0x1F78, symBinAddr: 0x100005440, symSize: 0x2C }
  - { offsetInCU: 0x18AB8, offset: 0x1BB27, size: 0x8, addend: 0x0, symName: __ZNSt3__112__hash_tableINS_17__hash_value_typeINS_12basic_stringIcNS_11char_traitsIcEENS_9allocatorIcEEEEiEENS_22__unordered_map_hasherIS7_S8_NS_4hashIS7_EENS_8equal_toIS7_EELb1EEENS_21__unordered_map_equalIS7_S8_SD_SB_Lb1EEENS5_IS8_EEED2Ev, symObjAddr: 0x1FA4, symBinAddr: 0x10000546C, symSize: 0x48 }
  - { offsetInCU: 0x18AE3, offset: 0x1BB52, size: 0x8, addend: 0x0, symName: __ZNSt3__112__hash_tableINS_17__hash_value_typeINS_12basic_stringIcNS_11char_traitsIcEENS_9allocatorIcEEEEiEENS_22__unordered_map_hasherIS7_S8_NS_4hashIS7_EENS_8equal_toIS7_EELb1EEENS_21__unordered_map_equalIS7_S8_SD_SB_Lb1EEENS5_IS8_EEE17__deallocate_nodeEPNS_16__hash_node_baseIPNS_11__hash_nodeIS8_PvEEEE, symObjAddr: 0x1FEC, symBinAddr: 0x1000054B4, symSize: 0xA8 }
  - { offsetInCU: 0x18B4C, offset: 0x1BBBB, size: 0x8, addend: 0x0, symName: __ZNSt3__117__compressed_pairINS_16__hash_node_baseIPNS_11__hash_nodeINS_17__hash_value_typeINS_12basic_stringIcNS_11char_traitsIcEENS_9allocatorIcEEEEiEEPvEEEENS7_ISC_EEE5firstB8ue170006Ev, symObjAddr: 0x2094, symBinAddr: 0x10000555C, symSize: 0x24 }
  - { offsetInCU: 0x18B71, offset: 0x1BBE0, size: 0x8, addend: 0x0, symName: __ZNSt3__110unique_ptrIA_PNS_16__hash_node_baseIPNS_11__hash_nodeINS_17__hash_value_typeINS_12basic_stringIcNS_11char_traitsIcEENS_9allocatorIcEEEEiEEPvEEEENS_25__bucket_list_deallocatorINS7_ISF_EEEEED1B8ue170006Ev, symObjAddr: 0x20B8, symBinAddr: 0x100005580, symSize: 0x2C }
  - { offsetInCU: 0x18B9A, offset: 0x1BC09, size: 0x8, addend: 0x0, symName: __ZNSt3__112__hash_tableINS_17__hash_value_typeINS_12basic_stringIcNS_11char_traitsIcEENS_9allocatorIcEEEEiEENS_22__unordered_map_hasherIS7_S8_NS_4hashIS7_EENS_8equal_toIS7_EELb1EEENS_21__unordered_map_equalIS7_S8_SD_SB_Lb1EEENS5_IS8_EEE12__node_allocB8ue170006Ev, symObjAddr: 0x20E4, symBinAddr: 0x1000055AC, symSize: 0x28 }
  - { offsetInCU: 0x18BBF, offset: 0x1BC2E, size: 0x8, addend: 0x0, symName: __ZNSt3__116__hash_node_baseIPNS_11__hash_nodeINS_17__hash_value_typeINS_12basic_stringIcNS_11char_traitsIcEENS_9allocatorIcEEEEiEEPvEEE8__upcastB8ue170006Ev, symObjAddr: 0x210C, symBinAddr: 0x1000055D4, symSize: 0x24 }
  - { offsetInCU: 0x18BE4, offset: 0x1BC53, size: 0x8, addend: 0x0, symName: __ZNSt3__116allocator_traitsINS_9allocatorINS_11__hash_nodeINS_17__hash_value_typeINS_12basic_stringIcNS_11char_traitsIcEENS1_IcEEEEiEEPvEEEEE7destroyB8ue170006INS_4pairIKS8_iEEvvEEvRSC_PT_, symObjAddr: 0x2130, symBinAddr: 0x1000055F8, symSize: 0x28 }
  - { offsetInCU: 0x18C1F, offset: 0x1BC8E, size: 0x8, addend: 0x0, symName: __ZNSt3__122__hash_key_value_typesINS_17__hash_value_typeINS_12basic_stringIcNS_11char_traitsIcEENS_9allocatorIcEEEEiEEE9__get_ptrB8ue170006ERS8_, symObjAddr: 0x2158, symBinAddr: 0x100005620, symSize: 0x24 }
  - { offsetInCU: 0x18C42, offset: 0x1BCB1, size: 0x8, addend: 0x0, symName: __ZNSt3__116allocator_traitsINS_9allocatorINS_11__hash_nodeINS_17__hash_value_typeINS_12basic_stringIcNS_11char_traitsIcEENS1_IcEEEEiEEPvEEEEE10deallocateB8ue170006ERSC_PSB_m, symObjAddr: 0x217C, symBinAddr: 0x100005644, symSize: 0x34 }
  - { offsetInCU: 0x18C84, offset: 0x1BCF3, size: 0x8, addend: 0x0, symName: __ZNSt3__117__compressed_pairINS_16__hash_node_baseIPNS_11__hash_nodeINS_17__hash_value_typeINS_12basic_stringIcNS_11char_traitsIcEENS_9allocatorIcEEEEiEEPvEEEENS7_ISC_EEE6secondB8ue170006Ev, symObjAddr: 0x21B0, symBinAddr: 0x100005678, symSize: 0x24 }
  - { offsetInCU: 0x18CA9, offset: 0x1BD18, size: 0x8, addend: 0x0, symName: __ZNSt3__122__compressed_pair_elemINS_9allocatorINS_11__hash_nodeINS_17__hash_value_typeINS_12basic_stringIcNS_11char_traitsIcEENS1_IcEEEEiEEPvEEEELi1ELb1EE5__getB8ue170006Ev, symObjAddr: 0x21D4, symBinAddr: 0x10000569C, symSize: 0x14 }
  - { offsetInCU: 0x18CCE, offset: 0x1BD3D, size: 0x8, addend: 0x0, symName: __ZNSt3__114pointer_traitsIPNS_16__hash_node_baseIPNS_11__hash_nodeINS_17__hash_value_typeINS_12basic_stringIcNS_11char_traitsIcEENS_9allocatorIcEEEEiEEPvEEEEE10pointer_toB8ue170006ERSE_, symObjAddr: 0x21E8, symBinAddr: 0x1000056B0, symSize: 0x14 }
  - { offsetInCU: 0x18CF1, offset: 0x1BD60, size: 0x8, addend: 0x0, symName: __ZNSt3__14pairIKNS_12basic_stringIcNS_11char_traitsIcEENS_9allocatorIcEEEEiED1Ev, symObjAddr: 0x2244, symBinAddr: 0x10000570C, symSize: 0x2C }
  - { offsetInCU: 0x18D1B, offset: 0x1BD8A, size: 0x8, addend: 0x0, symName: __ZNSt3__14pairIKNS_12basic_stringIcNS_11char_traitsIcEENS_9allocatorIcEEEEiED2Ev, symObjAddr: 0x2270, symBinAddr: 0x100005738, symSize: 0x2C }
  - { offsetInCU: 0x18D45, offset: 0x1BDB4, size: 0x8, addend: 0x0, symName: __ZNSt3__117__hash_value_typeINS_12basic_stringIcNS_11char_traitsIcEENS_9allocatorIcEEEEiE11__get_valueB8ue170006Ev, symObjAddr: 0x229C, symBinAddr: 0x100005764, symSize: 0x24 }
  - { offsetInCU: 0x18D6A, offset: 0x1BDD9, size: 0x8, addend: 0x0, symName: __ZNSt3__19allocatorINS_11__hash_nodeINS_17__hash_value_typeINS_12basic_stringIcNS_11char_traitsIcEENS0_IcEEEEiEEPvEEE10deallocateB8ue170006EPSA_m, symObjAddr: 0x22F8, symBinAddr: 0x1000057C0, symSize: 0x44 }
  - { offsetInCU: 0x18DAB, offset: 0x1BE1A, size: 0x8, addend: 0x0, symName: __ZNSt3__122__compressed_pair_elemINS_16__hash_node_baseIPNS_11__hash_nodeINS_17__hash_value_typeINS_12basic_stringIcNS_11char_traitsIcEENS_9allocatorIcEEEEiEEPvEEEELi0ELb0EE5__getB8ue170006Ev, symObjAddr: 0x2464, symBinAddr: 0x10000592C, symSize: 0x14 }
  - { offsetInCU: 0x18DD0, offset: 0x1BE3F, size: 0x8, addend: 0x0, symName: __ZNSt3__110unique_ptrIA_PNS_16__hash_node_baseIPNS_11__hash_nodeINS_17__hash_value_typeINS_12basic_stringIcNS_11char_traitsIcEENS_9allocatorIcEEEEiEEPvEEEENS_25__bucket_list_deallocatorINS7_ISF_EEEEED2B8ue170006Ev, symObjAddr: 0x2478, symBinAddr: 0x100005940, symSize: 0x30 }
  - { offsetInCU: 0x18DF9, offset: 0x1BE68, size: 0x8, addend: 0x0, symName: __ZNSt3__110unique_ptrIA_PNS_16__hash_node_baseIPNS_11__hash_nodeINS_17__hash_value_typeINS_12basic_stringIcNS_11char_traitsIcEENS_9allocatorIcEEEEiEEPvEEEENS_25__bucket_list_deallocatorINS7_ISF_EEEEE5resetB8ue170006EDn, symObjAddr: 0x24A8, symBinAddr: 0x100005970, symSize: 0x6C }
  - { offsetInCU: 0x18E39, offset: 0x1BEA8, size: 0x8, addend: 0x0, symName: __ZNSt3__117__compressed_pairIPPNS_16__hash_node_baseIPNS_11__hash_nodeINS_17__hash_value_typeINS_12basic_stringIcNS_11char_traitsIcEENS_9allocatorIcEEEEiEEPvEEEENS_25__bucket_list_deallocatorINS7_ISF_EEEEE5firstB8ue170006Ev, symObjAddr: 0x2514, symBinAddr: 0x1000059DC, symSize: 0x24 }
  - { offsetInCU: 0x18E5E, offset: 0x1BECD, size: 0x8, addend: 0x0, symName: __ZNSt3__117__compressed_pairIPPNS_16__hash_node_baseIPNS_11__hash_nodeINS_17__hash_value_typeINS_12basic_stringIcNS_11char_traitsIcEENS_9allocatorIcEEEEiEEPvEEEENS_25__bucket_list_deallocatorINS7_ISF_EEEEE6secondB8ue170006Ev, symObjAddr: 0x2538, symBinAddr: 0x100005A00, symSize: 0x28 }
  - { offsetInCU: 0x18E83, offset: 0x1BEF2, size: 0x8, addend: 0x0, symName: __ZNSt3__125__bucket_list_deallocatorINS_9allocatorIPNS_16__hash_node_baseIPNS_11__hash_nodeINS_17__hash_value_typeINS_12basic_stringIcNS_11char_traitsIcEENS1_IcEEEEiEEPvEEEEEEEclB8ue170006EPSF_, symObjAddr: 0x2560, symBinAddr: 0x100005A28, symSize: 0x58 }
  - { offsetInCU: 0x18EB7, offset: 0x1BF26, size: 0x8, addend: 0x0, symName: __ZNSt3__122__compressed_pair_elemIPPNS_16__hash_node_baseIPNS_11__hash_nodeINS_17__hash_value_typeINS_12basic_stringIcNS_11char_traitsIcEENS_9allocatorIcEEEEiEEPvEEEELi0ELb0EE5__getB8ue170006Ev, symObjAddr: 0x25B8, symBinAddr: 0x100005A80, symSize: 0x14 }
  - { offsetInCU: 0x18EDC, offset: 0x1BF4B, size: 0x8, addend: 0x0, symName: __ZNSt3__122__compressed_pair_elemINS_25__bucket_list_deallocatorINS_9allocatorIPNS_16__hash_node_baseIPNS_11__hash_nodeINS_17__hash_value_typeINS_12basic_stringIcNS_11char_traitsIcEENS2_IcEEEEiEEPvEEEEEEEELi1ELb0EE5__getB8ue170006Ev, symObjAddr: 0x25CC, symBinAddr: 0x100005A94, symSize: 0x14 }
  - { offsetInCU: 0x18F01, offset: 0x1BF70, size: 0x8, addend: 0x0, symName: __ZNSt3__116allocator_traitsINS_9allocatorIPNS_16__hash_node_baseIPNS_11__hash_nodeINS_17__hash_value_typeINS_12basic_stringIcNS_11char_traitsIcEENS1_IcEEEEiEEPvEEEEEEE10deallocateB8ue170006ERSG_PSF_m, symObjAddr: 0x25E0, symBinAddr: 0x100005AA8, symSize: 0x34 }
  - { offsetInCU: 0x18F43, offset: 0x1BFB2, size: 0x8, addend: 0x0, symName: __ZNSt3__125__bucket_list_deallocatorINS_9allocatorIPNS_16__hash_node_baseIPNS_11__hash_nodeINS_17__hash_value_typeINS_12basic_stringIcNS_11char_traitsIcEENS1_IcEEEEiEEPvEEEEEEE7__allocB8ue170006Ev, symObjAddr: 0x2614, symBinAddr: 0x100005ADC, symSize: 0x24 }
  - { offsetInCU: 0x18F68, offset: 0x1BFD7, size: 0x8, addend: 0x0, symName: __ZNSt3__125__bucket_list_deallocatorINS_9allocatorIPNS_16__hash_node_baseIPNS_11__hash_nodeINS_17__hash_value_typeINS_12basic_stringIcNS_11char_traitsIcEENS1_IcEEEEiEEPvEEEEEEE4sizeB8ue170006Ev, symObjAddr: 0x2638, symBinAddr: 0x100005B00, symSize: 0x24 }
  - { offsetInCU: 0x18F8D, offset: 0x1BFFC, size: 0x8, addend: 0x0, symName: __ZNSt3__19allocatorIPNS_16__hash_node_baseIPNS_11__hash_nodeINS_17__hash_value_typeINS_12basic_stringIcNS_11char_traitsIcEENS0_IcEEEEiEEPvEEEEE10deallocateB8ue170006EPSE_m, symObjAddr: 0x265C, symBinAddr: 0x100005B24, symSize: 0x40 }
  - { offsetInCU: 0x18FCE, offset: 0x1C03D, size: 0x8, addend: 0x0, symName: __ZNSt3__117__compressed_pairImNS_9allocatorIPNS_16__hash_node_baseIPNS_11__hash_nodeINS_17__hash_value_typeINS_12basic_stringIcNS_11char_traitsIcEENS1_IcEEEEiEEPvEEEEEEE6secondB8ue170006Ev, symObjAddr: 0x269C, symBinAddr: 0x100005B64, symSize: 0x24 }
  - { offsetInCU: 0x18FF3, offset: 0x1C062, size: 0x8, addend: 0x0, symName: __ZNSt3__122__compressed_pair_elemINS_9allocatorIPNS_16__hash_node_baseIPNS_11__hash_nodeINS_17__hash_value_typeINS_12basic_stringIcNS_11char_traitsIcEENS1_IcEEEEiEEPvEEEEEELi1ELb1EE5__getB8ue170006Ev, symObjAddr: 0x26C0, symBinAddr: 0x100005B88, symSize: 0x14 }
  - { offsetInCU: 0x19018, offset: 0x1C087, size: 0x8, addend: 0x0, symName: __ZNSt3__117__compressed_pairImNS_9allocatorIPNS_16__hash_node_baseIPNS_11__hash_nodeINS_17__hash_value_typeINS_12basic_stringIcNS_11char_traitsIcEENS1_IcEEEEiEEPvEEEEEEE5firstB8ue170006Ev, symObjAddr: 0x26D4, symBinAddr: 0x100005B9C, symSize: 0x24 }
  - { offsetInCU: 0x1903D, offset: 0x1C0AC, size: 0x8, addend: 0x0, symName: __ZNSt3__122__compressed_pair_elemImLi0ELb0EE5__getB8ue170006Ev, symObjAddr: 0x26F8, symBinAddr: 0x100005BC0, symSize: 0x14 }
  - { offsetInCU: 0x19062, offset: 0x1C0D1, size: 0x8, addend: 0x0, symName: __ZNSt3__112__hash_tableINS_17__hash_value_typeINS_12basic_stringIcNS_11char_traitsIcEENS_9allocatorIcEEEEiEENS_22__unordered_map_hasherIS7_S8_NS_4hashIS7_EENS_8equal_toIS7_EELb1EEENS_21__unordered_map_equalIS7_S8_SD_SB_Lb1EEENS5_IS8_EEE4findIS7_EENS_15__hash_iteratorIPNS_11__hash_nodeIS8_PvEEEERKT_, symObjAddr: 0x270C, symBinAddr: 0x100005BD4, symSize: 0x1B0 }
  - { offsetInCU: 0x190EC, offset: 0x1C15B, size: 0x8, addend: 0x0, symName: __ZNSt3__119__hash_map_iteratorINS_15__hash_iteratorIPNS_11__hash_nodeINS_17__hash_value_typeINS_12basic_stringIcNS_11char_traitsIcEENS_9allocatorIcEEEEiEEPvEEEEEC1B8ue170006ESE_, symObjAddr: 0x28BC, symBinAddr: 0x100005D84, symSize: 0x34 }
  - { offsetInCU: 0x19124, offset: 0x1C193, size: 0x8, addend: 0x0, symName: __ZNSt3__112__hash_tableINS_17__hash_value_typeINS_12basic_stringIcNS_11char_traitsIcEENS_9allocatorIcEEEEiEENS_22__unordered_map_hasherIS7_S8_NS_4hashIS7_EENS_8equal_toIS7_EELb1EEENS_21__unordered_map_equalIS7_S8_SD_SB_Lb1EEENS5_IS8_EEE13hash_functionB8ue170006Ev, symObjAddr: 0x28F0, symBinAddr: 0x100005DB8, symSize: 0x28 }
  - { offsetInCU: 0x19149, offset: 0x1C1B8, size: 0x8, addend: 0x0, symName: __ZNKSt3__122__unordered_map_hasherINS_12basic_stringIcNS_11char_traitsIcEENS_9allocatorIcEEEENS_17__hash_value_typeIS6_iEENS_4hashIS6_EENS_8equal_toIS6_EELb1EEclB8ue170006ERKS6_, symObjAddr: 0x2918, symBinAddr: 0x100005DE0, symSize: 0x2C }
  - { offsetInCU: 0x1917D, offset: 0x1C1EC, size: 0x8, addend: 0x0, symName: __ZNKSt3__112__hash_tableINS_17__hash_value_typeINS_12basic_stringIcNS_11char_traitsIcEENS_9allocatorIcEEEEiEENS_22__unordered_map_hasherIS7_S8_NS_4hashIS7_EENS_8equal_toIS7_EELb1EEENS_21__unordered_map_equalIS7_S8_SD_SB_Lb1EEENS5_IS8_EEE12bucket_countB8ue170006Ev, symObjAddr: 0x2944, symBinAddr: 0x100005E0C, symSize: 0x28 }
  - { offsetInCU: 0x191A2, offset: 0x1C211, size: 0x8, addend: 0x0, symName: __ZNKSt3__110unique_ptrIA_PNS_16__hash_node_baseIPNS_11__hash_nodeINS_17__hash_value_typeINS_12basic_stringIcNS_11char_traitsIcEENS_9allocatorIcEEEEiEEPvEEEENS_25__bucket_list_deallocatorINS7_ISF_EEEEEixB8ue170006Em, symObjAddr: 0x2A04, symBinAddr: 0x100005ECC, symSize: 0x34 }
  - { offsetInCU: 0x191D6, offset: 0x1C245, size: 0x8, addend: 0x0, symName: __ZNKSt3__116__hash_node_baseIPNS_11__hash_nodeINS_17__hash_value_typeINS_12basic_stringIcNS_11char_traitsIcEENS_9allocatorIcEEEEiEEPvEEE6__hashB8ue170006Ev, symObjAddr: 0x2A38, symBinAddr: 0x100005F00, symSize: 0x18 }
  - { offsetInCU: 0x191FB, offset: 0x1C26A, size: 0x8, addend: 0x0, symName: __ZNSt3__112__hash_tableINS_17__hash_value_typeINS_12basic_stringIcNS_11char_traitsIcEENS_9allocatorIcEEEEiEENS_22__unordered_map_hasherIS7_S8_NS_4hashIS7_EENS_8equal_toIS7_EELb1EEENS_21__unordered_map_equalIS7_S8_SD_SB_Lb1EEENS5_IS8_EEE6key_eqB8ue170006Ev, symObjAddr: 0x2A50, symBinAddr: 0x100005F18, symSize: 0x28 }
  - { offsetInCU: 0x19220, offset: 0x1C28F, size: 0x8, addend: 0x0, symName: __ZNKSt3__121__unordered_map_equalINS_12basic_stringIcNS_11char_traitsIcEENS_9allocatorIcEEEENS_17__hash_value_typeIS6_iEENS_8equal_toIS6_EENS_4hashIS6_EELb1EEclB8ue170006ERKS8_RKS6_, symObjAddr: 0x2A78, symBinAddr: 0x100005F40, symSize: 0x48 }
  - { offsetInCU: 0x19263, offset: 0x1C2D2, size: 0x8, addend: 0x0, symName: __ZNSt3__115__hash_iteratorIPNS_11__hash_nodeINS_17__hash_value_typeINS_12basic_stringIcNS_11char_traitsIcEENS_9allocatorIcEEEEiEEPvEEEC1B8ue170006EPNS_16__hash_node_baseISC_EE, symObjAddr: 0x2AC0, symBinAddr: 0x100005F88, symSize: 0x34 }
  - { offsetInCU: 0x1929B, offset: 0x1C30A, size: 0x8, addend: 0x0, symName: __ZNSt3__112__hash_tableINS_17__hash_value_typeINS_12basic_stringIcNS_11char_traitsIcEENS_9allocatorIcEEEEiEENS_22__unordered_map_hasherIS7_S8_NS_4hashIS7_EENS_8equal_toIS7_EELb1EEENS_21__unordered_map_equalIS7_S8_SD_SB_Lb1EEENS5_IS8_EEE3endEv, symObjAddr: 0x2AF4, symBinAddr: 0x100005FBC, symSize: 0x2C }
  - { offsetInCU: 0x192C2, offset: 0x1C331, size: 0x8, addend: 0x0, symName: __ZNSt3__117__compressed_pairImNS_22__unordered_map_hasherINS_12basic_stringIcNS_11char_traitsIcEENS_9allocatorIcEEEENS_17__hash_value_typeIS7_iEENS_4hashIS7_EENS_8equal_toIS7_EELb1EEEE6secondB8ue170006Ev, symObjAddr: 0x2B20, symBinAddr: 0x100005FE8, symSize: 0x24 }
  - { offsetInCU: 0x192E7, offset: 0x1C356, size: 0x8, addend: 0x0, symName: __ZNSt3__122__compressed_pair_elemINS_22__unordered_map_hasherINS_12basic_stringIcNS_11char_traitsIcEENS_9allocatorIcEEEENS_17__hash_value_typeIS7_iEENS_4hashIS7_EENS_8equal_toIS7_EELb1EEELi1ELb1EE5__getB8ue170006Ev, symObjAddr: 0x2B44, symBinAddr: 0x10000600C, symSize: 0x14 }
  - { offsetInCU: 0x1930C, offset: 0x1C37B, size: 0x8, addend: 0x0, symName: __ZNKSt3__113__string_hashIcNS_9allocatorIcEEEclB8ue170006ERKNS_12basic_stringIcNS_11char_traitsIcEES2_EE, symObjAddr: 0x2B58, symBinAddr: 0x100006020, symSize: 0x64 }
  - { offsetInCU: 0x19340, offset: 0x1C3AF, size: 0x8, addend: 0x0, symName: __ZNKSt3__112basic_stringIcNS_11char_traitsIcEENS_9allocatorIcEEE4sizeB8ue170006Ev, symObjAddr: 0x2BF8, symBinAddr: 0x1000060C0, symSize: 0x54 }
  - { offsetInCU: 0x19365, offset: 0x1C3D4, size: 0x8, addend: 0x0, symName: __ZNKSt3__121__murmur2_or_cityhashImLm64EEclB8ue170006EPKvm, symObjAddr: 0x2C4C, symBinAddr: 0x100006114, symSize: 0x410 }
  - { offsetInCU: 0x19404, offset: 0x1C473, size: 0x8, addend: 0x0, symName: __ZNSt3__121__murmur2_or_cityhashImLm64EE18__hash_len_0_to_16B8ue170006EPKcm, symObjAddr: 0x305C, symBinAddr: 0x100006524, symSize: 0x1C0 }
  - { offsetInCU: 0x194E9, offset: 0x1C558, size: 0x8, addend: 0x0, symName: __ZNSt3__121__murmur2_or_cityhashImLm64EE19__hash_len_17_to_32B8ue170006EPKcm, symObjAddr: 0x321C, symBinAddr: 0x1000066E4, symSize: 0x130 }
  - { offsetInCU: 0x19556, offset: 0x1C5C5, size: 0x8, addend: 0x0, symName: __ZNSt3__121__murmur2_or_cityhashImLm64EE19__hash_len_33_to_64B8ue170006EPKcm, symObjAddr: 0x334C, symBinAddr: 0x100006814, symSize: 0x2B8 }
  - { offsetInCU: 0x19611, offset: 0x1C680, size: 0x8, addend: 0x0, symName: __ZNSt3__121__murmur2_or_cityhashImLm64EE13__hash_len_16B8ue170006Emm, symObjAddr: 0x3624, symBinAddr: 0x100006AEC, symSize: 0x80 }
  - { offsetInCU: 0x1966F, offset: 0x1C6DE, size: 0x8, addend: 0x0, symName: __ZNSt3__121__murmur2_or_cityhashImLm64EE29__weak_hash_len_32_with_seedsB8ue170006EPKcmm, symObjAddr: 0x36A4, symBinAddr: 0x100006B6C, symSize: 0x88 }
  - { offsetInCU: 0x196AE, offset: 0x1C71D, size: 0x8, addend: 0x0, symName: __ZNSt3__121__murmur2_or_cityhashImLm64EE8__rotateB8ue170006Emi, symObjAddr: 0x372C, symBinAddr: 0x100006BF4, symSize: 0x64 }
  - { offsetInCU: 0x196DF, offset: 0x1C74E, size: 0x8, addend: 0x0, symName: __ZNSt3__14pairImmEaSB8ue170006EOS1_, symObjAddr: 0x3790, symBinAddr: 0x100006C58, symSize: 0x30 }
  - { offsetInCU: 0x19713, offset: 0x1C782, size: 0x8, addend: 0x0, symName: __ZNSt3__121__murmur2_or_cityhashImLm64EE11__shift_mixB8ue170006Em, symObjAddr: 0x37FC, symBinAddr: 0x100006CC4, symSize: 0x1C }
  - { offsetInCU: 0x19736, offset: 0x1C7A5, size: 0x8, addend: 0x0, symName: __ZNSt3__121__murmur2_or_cityhashImLm64EE22__rotate_by_at_least_1B8ue170006Emi, symObjAddr: 0x3818, symBinAddr: 0x100006CE0, symSize: 0x38 }
  - { offsetInCU: 0x19767, offset: 0x1C7D6, size: 0x8, addend: 0x0, symName: __ZNSt3__121__murmur2_or_cityhashImLm64EE29__weak_hash_len_32_with_seedsB8ue170006Emmmmmm, symObjAddr: 0x3870, symBinAddr: 0x100006D38, symSize: 0xD8 }
  - { offsetInCU: 0x197E5, offset: 0x1C854, size: 0x8, addend: 0x0, symName: __ZNSt3__14pairImmEC1B8ue170006ImmLPv0EEEOT_OT0_, symObjAddr: 0x3948, symBinAddr: 0x100006E10, symSize: 0x3C }
  - { offsetInCU: 0x19842, offset: 0x1C8B1, size: 0x8, addend: 0x0, symName: __ZNSt3__14pairImmEC2B8ue170006ImmLPv0EEEOT_OT0_, symObjAddr: 0x3984, symBinAddr: 0x100006E4C, symSize: 0x34 }
  - { offsetInCU: 0x1989F, offset: 0x1C90E, size: 0x8, addend: 0x0, symName: __ZNKSt3__112basic_stringIcNS_11char_traitsIcEENS_9allocatorIcEEE15__get_long_sizeB8ue170006Ev, symObjAddr: 0x39B8, symBinAddr: 0x100006E80, symSize: 0x28 }
  - { offsetInCU: 0x198C4, offset: 0x1C933, size: 0x8, addend: 0x0, symName: __ZNKSt3__112basic_stringIcNS_11char_traitsIcEENS_9allocatorIcEEE16__get_short_sizeB8ue170006Ev, symObjAddr: 0x39E0, symBinAddr: 0x100006EA8, symSize: 0x34 }
  - { offsetInCU: 0x198E9, offset: 0x1C958, size: 0x8, addend: 0x0, symName: __ZNKSt3__110unique_ptrIA_PNS_16__hash_node_baseIPNS_11__hash_nodeINS_17__hash_value_typeINS_12basic_stringIcNS_11char_traitsIcEENS_9allocatorIcEEEEiEEPvEEEENS_25__bucket_list_deallocatorINS7_ISF_EEEEE11get_deleterB8ue170006Ev, symObjAddr: 0x3A14, symBinAddr: 0x100006EDC, symSize: 0x24 }
  - { offsetInCU: 0x1990E, offset: 0x1C97D, size: 0x8, addend: 0x0, symName: __ZNKSt3__125__bucket_list_deallocatorINS_9allocatorIPNS_16__hash_node_baseIPNS_11__hash_nodeINS_17__hash_value_typeINS_12basic_stringIcNS_11char_traitsIcEENS1_IcEEEEiEEPvEEEEEEE4sizeB8ue170006Ev, symObjAddr: 0x3A38, symBinAddr: 0x100006F00, symSize: 0x28 }
  - { offsetInCU: 0x19933, offset: 0x1C9A2, size: 0x8, addend: 0x0, symName: __ZNKSt3__117__compressed_pairIPPNS_16__hash_node_baseIPNS_11__hash_nodeINS_17__hash_value_typeINS_12basic_stringIcNS_11char_traitsIcEENS_9allocatorIcEEEEiEEPvEEEENS_25__bucket_list_deallocatorINS7_ISF_EEEEE6secondB8ue170006Ev, symObjAddr: 0x3A60, symBinAddr: 0x100006F28, symSize: 0x28 }
  - { offsetInCU: 0x19958, offset: 0x1C9C7, size: 0x8, addend: 0x0, symName: __ZNKSt3__122__compressed_pair_elemINS_25__bucket_list_deallocatorINS_9allocatorIPNS_16__hash_node_baseIPNS_11__hash_nodeINS_17__hash_value_typeINS_12basic_stringIcNS_11char_traitsIcEENS2_IcEEEEiEEPvEEEEEEEELi1ELb0EE5__getB8ue170006Ev, symObjAddr: 0x3A88, symBinAddr: 0x100006F50, symSize: 0x14 }
  - { offsetInCU: 0x1997D, offset: 0x1C9EC, size: 0x8, addend: 0x0, symName: __ZNKSt3__117__compressed_pairImNS_9allocatorIPNS_16__hash_node_baseIPNS_11__hash_nodeINS_17__hash_value_typeINS_12basic_stringIcNS_11char_traitsIcEENS1_IcEEEEiEEPvEEEEEEE5firstB8ue170006Ev, symObjAddr: 0x3A9C, symBinAddr: 0x100006F64, symSize: 0x24 }
  - { offsetInCU: 0x199A2, offset: 0x1CA11, size: 0x8, addend: 0x0, symName: __ZNKSt3__122__compressed_pair_elemImLi0ELb0EE5__getB8ue170006Ev, symObjAddr: 0x3AC0, symBinAddr: 0x100006F88, symSize: 0x14 }
  - { offsetInCU: 0x199C7, offset: 0x1CA36, size: 0x8, addend: 0x0, symName: __ZNKSt3__117__compressed_pairIPPNS_16__hash_node_baseIPNS_11__hash_nodeINS_17__hash_value_typeINS_12basic_stringIcNS_11char_traitsIcEENS_9allocatorIcEEEEiEEPvEEEENS_25__bucket_list_deallocatorINS7_ISF_EEEEE5firstB8ue170006Ev, symObjAddr: 0x3AD4, symBinAddr: 0x100006F9C, symSize: 0x24 }
  - { offsetInCU: 0x199EC, offset: 0x1CA5B, size: 0x8, addend: 0x0, symName: __ZNKSt3__122__compressed_pair_elemIPPNS_16__hash_node_baseIPNS_11__hash_nodeINS_17__hash_value_typeINS_12basic_stringIcNS_11char_traitsIcEENS_9allocatorIcEEEEiEEPvEEEELi0ELb0EE5__getB8ue170006Ev, symObjAddr: 0x3AF8, symBinAddr: 0x100006FC0, symSize: 0x14 }
  - { offsetInCU: 0x19A11, offset: 0x1CA80, size: 0x8, addend: 0x0, symName: __ZNSt3__117__compressed_pairIfNS_21__unordered_map_equalINS_12basic_stringIcNS_11char_traitsIcEENS_9allocatorIcEEEENS_17__hash_value_typeIS7_iEENS_8equal_toIS7_EENS_4hashIS7_EELb1EEEE6secondB8ue170006Ev, symObjAddr: 0x3B0C, symBinAddr: 0x100006FD4, symSize: 0x24 }
  - { offsetInCU: 0x19A36, offset: 0x1CAA5, size: 0x8, addend: 0x0, symName: __ZNSt3__122__compressed_pair_elemINS_21__unordered_map_equalINS_12basic_stringIcNS_11char_traitsIcEENS_9allocatorIcEEEENS_17__hash_value_typeIS7_iEENS_8equal_toIS7_EENS_4hashIS7_EELb1EEELi1ELb1EE5__getB8ue170006Ev, symObjAddr: 0x3B30, symBinAddr: 0x100006FF8, symSize: 0x14 }
  - { offsetInCU: 0x19A5B, offset: 0x1CACA, size: 0x8, addend: 0x0, symName: __ZNKSt3__18equal_toINS_12basic_stringIcNS_11char_traitsIcEENS_9allocatorIcEEEEEclB8ue170006ERKS6_S9_, symObjAddr: 0x3B44, symBinAddr: 0x10000700C, symSize: 0x34 }
  - { offsetInCU: 0x19A9E, offset: 0x1CB0D, size: 0x8, addend: 0x0, symName: __ZNKSt3__117__hash_value_typeINS_12basic_stringIcNS_11char_traitsIcEENS_9allocatorIcEEEEiE11__get_valueB8ue170006Ev, symObjAddr: 0x3B78, symBinAddr: 0x100007040, symSize: 0x24 }
  - { offsetInCU: 0x19AC3, offset: 0x1CB32, size: 0x8, addend: 0x0, symName: __ZNSt3__111char_traitsIcE7compareB8ue170006EPKcS3_m, symObjAddr: 0x3CE4, symBinAddr: 0x1000071AC, symSize: 0x34 }
  - { offsetInCU: 0x19B02, offset: 0x1CB71, size: 0x8, addend: 0x0, symName: __ZNSt3__115__hash_iteratorIPNS_11__hash_nodeINS_17__hash_value_typeINS_12basic_stringIcNS_11char_traitsIcEENS_9allocatorIcEEEEiEEPvEEEC2B8ue170006EPNS_16__hash_node_baseISC_EE, symObjAddr: 0x3D50, symBinAddr: 0x100007218, symSize: 0x20 }
  - { offsetInCU: 0x19B3A, offset: 0x1CBA9, size: 0x8, addend: 0x0, symName: __ZNSt3__119__hash_map_iteratorINS_15__hash_iteratorIPNS_11__hash_nodeINS_17__hash_value_typeINS_12basic_stringIcNS_11char_traitsIcEENS_9allocatorIcEEEEiEEPvEEEEEC2B8ue170006ESE_, symObjAddr: 0x3D70, symBinAddr: 0x100007238, symSize: 0x20 }
  - { offsetInCU: 0x19B89, offset: 0x1CBF8, size: 0x8, addend: 0x0, symName: __ZNSt3__112__hash_tableINS_17__hash_value_typeINS_12basic_stringIcNS_11char_traitsIcEENS_9allocatorIcEEEEiEENS_22__unordered_map_hasherIS7_S8_NS_4hashIS7_EENS_8equal_toIS7_EELb1EEENS_21__unordered_map_equalIS7_S8_SD_SB_Lb1EEENS5_IS8_EEE25__emplace_unique_key_argsIS7_JRKNS_21piecewise_construct_tENS_5tupleIJRKS7_EEENSN_IJEEEEEENS_4pairINS_15__hash_iteratorIPNS_11__hash_nodeIS8_PvEEEEbEERKT_DpOT0_, symObjAddr: 0x3DC0, symBinAddr: 0x100007288, symSize: 0x4B8 }
  - { offsetInCU: 0x19C92, offset: 0x1CD01, size: 0x8, addend: 0x0, symName: __ZNKSt3__115__hash_iteratorIPNS_11__hash_nodeINS_17__hash_value_typeINS_12basic_stringIcNS_11char_traitsIcEENS_9allocatorIcEEEEiEEPvEEEptB8ue170006Ev, symObjAddr: 0x42A8, symBinAddr: 0x100007770, symSize: 0x30 }
  - { offsetInCU: 0x19CB7, offset: 0x1CD26, size: 0x8, addend: 0x0, symName: __ZNSt3__112__hash_tableINS_17__hash_value_typeINS_12basic_stringIcNS_11char_traitsIcEENS_9allocatorIcEEEEiEENS_22__unordered_map_hasherIS7_S8_NS_4hashIS7_EENS_8equal_toIS7_EELb1EEENS_21__unordered_map_equalIS7_S8_SD_SB_Lb1EEENS5_IS8_EEE21__construct_node_hashIRKNS_21piecewise_construct_tEJNS_5tupleIJRKS7_EEENSN_IJEEEEEENS_10unique_ptrINS_11__hash_nodeIS8_PvEENS_22__hash_node_destructorINS5_ISV_EEEEEEmOT_DpOT0_, symObjAddr: 0x42D8, symBinAddr: 0x1000077A0, symSize: 0x150 }
  - { offsetInCU: 0x19D52, offset: 0x1CDC1, size: 0x8, addend: 0x0, symName: __ZNSt3__112__hash_tableINS_17__hash_value_typeINS_12basic_stringIcNS_11char_traitsIcEENS_9allocatorIcEEEEiEENS_22__unordered_map_hasherIS7_S8_NS_4hashIS7_EENS_8equal_toIS7_EELb1EEENS_21__unordered_map_equalIS7_S8_SD_SB_Lb1EEENS5_IS8_EEE4sizeB8ue170006Ev, symObjAddr: 0x4428, symBinAddr: 0x1000078F0, symSize: 0x28 }
  - { offsetInCU: 0x19D77, offset: 0x1CDE6, size: 0x8, addend: 0x0, symName: __ZNSt3__112__hash_tableINS_17__hash_value_typeINS_12basic_stringIcNS_11char_traitsIcEENS_9allocatorIcEEEEiEENS_22__unordered_map_hasherIS7_S8_NS_4hashIS7_EENS_8equal_toIS7_EELb1EEENS_21__unordered_map_equalIS7_S8_SD_SB_Lb1EEENS5_IS8_EEE15max_load_factorB8ue170006Ev, symObjAddr: 0x4450, symBinAddr: 0x100007918, symSize: 0x28 }
  - { offsetInCU: 0x19D9C, offset: 0x1CE0B, size: 0x8, addend: 0x0, symName: __ZNSt3__112__hash_tableINS_17__hash_value_typeINS_12basic_stringIcNS_11char_traitsIcEENS_9allocatorIcEEEEiEENS_22__unordered_map_hasherIS7_S8_NS_4hashIS7_EENS_8equal_toIS7_EELb1EEENS_21__unordered_map_equalIS7_S8_SD_SB_Lb1EEENS5_IS8_EEE15__rehash_uniqueB8ue170006Em, symObjAddr: 0x4478, symBinAddr: 0x100007940, symSize: 0x2C }
  - { offsetInCU: 0x19DCF, offset: 0x1CE3E, size: 0x8, addend: 0x0, symName: __Z4ceilB8ue170006f, symObjAddr: 0x4520, symBinAddr: 0x1000079E8, symSize: 0x18 }
  - { offsetInCU: 0x19DFF, offset: 0x1CE6E, size: 0x8, addend: 0x0, symName: __ZNSt3__116__hash_node_baseIPNS_11__hash_nodeINS_17__hash_value_typeINS_12basic_stringIcNS_11char_traitsIcEENS_9allocatorIcEEEEiEEPvEEE5__ptrB8ue170006Ev, symObjAddr: 0x4538, symBinAddr: 0x100007A00, symSize: 0x24 }
  - { offsetInCU: 0x19E24, offset: 0x1CE93, size: 0x8, addend: 0x0, symName: __ZNKSt3__110unique_ptrINS_11__hash_nodeINS_17__hash_value_typeINS_12basic_stringIcNS_11char_traitsIcEENS_9allocatorIcEEEEiEEPvEENS_22__hash_node_destructorINS6_ISB_EEEEEptB8ue170006Ev, symObjAddr: 0x455C, symBinAddr: 0x100007A24, symSize: 0x28 }
  - { offsetInCU: 0x19E49, offset: 0x1CEB8, size: 0x8, addend: 0x0, symName: __ZNKSt3__110unique_ptrINS_11__hash_nodeINS_17__hash_value_typeINS_12basic_stringIcNS_11char_traitsIcEENS_9allocatorIcEEEEiEEPvEENS_22__hash_node_destructorINS6_ISB_EEEEE3getB8ue170006Ev, symObjAddr: 0x4584, symBinAddr: 0x100007A4C, symSize: 0x28 }
  - { offsetInCU: 0x19E6E, offset: 0x1CEDD, size: 0x8, addend: 0x0, symName: __ZNSt3__110unique_ptrINS_11__hash_nodeINS_17__hash_value_typeINS_12basic_stringIcNS_11char_traitsIcEENS_9allocatorIcEEEEiEEPvEENS_22__hash_node_destructorINS6_ISB_EEEEE7releaseB8ue170006Ev, symObjAddr: 0x45AC, symBinAddr: 0x100007A74, symSize: 0x44 }
  - { offsetInCU: 0x19EA2, offset: 0x1CF11, size: 0x8, addend: 0x0, symName: __ZNSt3__110unique_ptrINS_11__hash_nodeINS_17__hash_value_typeINS_12basic_stringIcNS_11char_traitsIcEENS_9allocatorIcEEEEiEEPvEENS_22__hash_node_destructorINS6_ISB_EEEEED1B8ue170006Ev, symObjAddr: 0x45F0, symBinAddr: 0x100007AB8, symSize: 0x2C }
  - { offsetInCU: 0x19ED1, offset: 0x1CF40, size: 0x8, addend: 0x0, symName: __ZNSt3__14pairINS_15__hash_iteratorIPNS_11__hash_nodeINS_17__hash_value_typeINS_12basic_stringIcNS_11char_traitsIcEENS_9allocatorIcEEEEiEEPvEEEEbEC1B8ue170006ISE_RbLSB_0EEEOT_OT0_, symObjAddr: 0x461C, symBinAddr: 0x100007AE4, symSize: 0x3C }
  - { offsetInCU: 0x19F2E, offset: 0x1CF9D, size: 0x8, addend: 0x0, symName: __ZNSt3__116allocator_traitsINS_9allocatorINS_11__hash_nodeINS_17__hash_value_typeINS_12basic_stringIcNS_11char_traitsIcEENS1_IcEEEEiEEPvEEEEE8allocateB8ue170006ERSC_m, symObjAddr: 0x4658, symBinAddr: 0x100007B20, symSize: 0x2C }
  - { offsetInCU: 0x19F61, offset: 0x1CFD0, size: 0x8, addend: 0x0, symName: __ZNSt3__122__hash_node_destructorINS_9allocatorINS_11__hash_nodeINS_17__hash_value_typeINS_12basic_stringIcNS_11char_traitsIcEENS1_IcEEEEiEEPvEEEEEC1B8ue170006ERSC_b, symObjAddr: 0x4684, symBinAddr: 0x100007B4C, symSize: 0x48 }
  - { offsetInCU: 0x19FAE, offset: 0x1D01D, size: 0x8, addend: 0x0, symName: __ZNSt3__110unique_ptrINS_11__hash_nodeINS_17__hash_value_typeINS_12basic_stringIcNS_11char_traitsIcEENS_9allocatorIcEEEEiEEPvEENS_22__hash_node_destructorINS6_ISB_EEEEEC1B8ue170006ILb1EvEEPSB_NS_16__dependent_typeINS_27__unique_ptr_deleter_sfinaeISE_EEXT_EE20__good_rval_ref_typeE, symObjAddr: 0x46CC, symBinAddr: 0x100007B94, symSize: 0x3C }
  - { offsetInCU: 0x19FFE, offset: 0x1D06D, size: 0x8, addend: 0x0, symName: __ZNSt3__116allocator_traitsINS_9allocatorINS_11__hash_nodeINS_17__hash_value_typeINS_12basic_stringIcNS_11char_traitsIcEENS1_IcEEEEiEEPvEEEEE9constructB8ue170006INS_4pairIKS8_iEEJRKNS_21piecewise_construct_tENS_5tupleIJRSG_EEENSL_IJEEEEvvEEvRSC_PT_DpOT0_, symObjAddr: 0x4708, symBinAddr: 0x100007BD0, symSize: 0x40 }
  - { offsetInCU: 0x1A07B, offset: 0x1D0EA, size: 0x8, addend: 0x0, symName: __ZNSt3__110unique_ptrINS_11__hash_nodeINS_17__hash_value_typeINS_12basic_stringIcNS_11char_traitsIcEENS_9allocatorIcEEEEiEEPvEENS_22__hash_node_destructorINS6_ISB_EEEEE11get_deleterB8ue170006Ev, symObjAddr: 0x4748, symBinAddr: 0x100007C10, symSize: 0x24 }
  - { offsetInCU: 0x1A0A0, offset: 0x1D10F, size: 0x8, addend: 0x0, symName: __ZNSt3__19allocatorINS_11__hash_nodeINS_17__hash_value_typeINS_12basic_stringIcNS_11char_traitsIcEENS0_IcEEEEiEEPvEEE8allocateB8ue170006Em, symObjAddr: 0x476C, symBinAddr: 0x100007C34, symSize: 0x5C }
  - { offsetInCU: 0x1A0DE, offset: 0x1D14D, size: 0x8, addend: 0x0, symName: __ZNSt3__116allocator_traitsINS_9allocatorINS_11__hash_nodeINS_17__hash_value_typeINS_12basic_stringIcNS_11char_traitsIcEENS1_IcEEEEiEEPvEEEEE8max_sizeB8ue170006ISC_vvEEmRKSC_, symObjAddr: 0x47C8, symBinAddr: 0x100007C90, symSize: 0x28 }
  - { offsetInCU: 0x1A10A, offset: 0x1D179, size: 0x8, addend: 0x0, symName: __ZNSt3__114numeric_limitsImE3maxB8ue170006Ev, symObjAddr: 0x4884, symBinAddr: 0x100007D4C, symSize: 0x14 }
  - { offsetInCU: 0x1A11E, offset: 0x1D18D, size: 0x8, addend: 0x0, symName: __ZNSt3__123__libcpp_numeric_limitsImLb1EE3maxB8ue170006Ev, symObjAddr: 0x4898, symBinAddr: 0x100007D60, symSize: 0x8 }
  - { offsetInCU: 0x1A132, offset: 0x1D1A1, size: 0x8, addend: 0x0, symName: __ZNSt3__122__hash_node_destructorINS_9allocatorINS_11__hash_nodeINS_17__hash_value_typeINS_12basic_stringIcNS_11char_traitsIcEENS1_IcEEEEiEEPvEEEEEC2B8ue170006ERSC_b, symObjAddr: 0x48F0, symBinAddr: 0x100007DB8, symSize: 0x38 }
  - { offsetInCU: 0x1A179, offset: 0x1D1E8, size: 0x8, addend: 0x0, symName: __ZNSt3__110unique_ptrINS_11__hash_nodeINS_17__hash_value_typeINS_12basic_stringIcNS_11char_traitsIcEENS_9allocatorIcEEEEiEEPvEENS_22__hash_node_destructorINS6_ISB_EEEEEC2B8ue170006ILb1EvEEPSB_NS_16__dependent_typeINS_27__unique_ptr_deleter_sfinaeISE_EEXT_EE20__good_rval_ref_typeE, symObjAddr: 0x4928, symBinAddr: 0x100007DF0, symSize: 0x48 }
  - { offsetInCU: 0x1A1C9, offset: 0x1D238, size: 0x8, addend: 0x0, symName: __ZNSt3__117__compressed_pairIPNS_11__hash_nodeINS_17__hash_value_typeINS_12basic_stringIcNS_11char_traitsIcEENS_9allocatorIcEEEEiEEPvEENS_22__hash_node_destructorINS6_ISB_EEEEEC1B8ue170006IRSC_SF_EEOT_OT0_, symObjAddr: 0x4970, symBinAddr: 0x100007E38, symSize: 0x3C }
  - { offsetInCU: 0x1A220, offset: 0x1D28F, size: 0x8, addend: 0x0, symName: __ZNSt3__117__compressed_pairIPNS_11__hash_nodeINS_17__hash_value_typeINS_12basic_stringIcNS_11char_traitsIcEENS_9allocatorIcEEEEiEEPvEENS_22__hash_node_destructorINS6_ISB_EEEEEC2B8ue170006IRSC_SF_EEOT_OT0_, symObjAddr: 0x49AC, symBinAddr: 0x100007E74, symSize: 0x48 }
  - { offsetInCU: 0x1A277, offset: 0x1D2E6, size: 0x8, addend: 0x0, symName: __ZNSt3__122__compressed_pair_elemIPNS_11__hash_nodeINS_17__hash_value_typeINS_12basic_stringIcNS_11char_traitsIcEENS_9allocatorIcEEEEiEEPvEELi0ELb0EEC2B8ue170006IRSC_vEEOT_, symObjAddr: 0x49F4, symBinAddr: 0x100007EBC, symSize: 0x24 }
  - { offsetInCU: 0x1A2B8, offset: 0x1D327, size: 0x8, addend: 0x0, symName: __ZNSt3__122__compressed_pair_elemINS_22__hash_node_destructorINS_9allocatorINS_11__hash_nodeINS_17__hash_value_typeINS_12basic_stringIcNS_11char_traitsIcEENS2_IcEEEEiEEPvEEEEEELi1ELb0EEC2B8ue170006ISE_vEEOT_, symObjAddr: 0x4A18, symBinAddr: 0x100007EE0, symSize: 0x24 }
  - { offsetInCU: 0x1A2F9, offset: 0x1D368, size: 0x8, addend: 0x0, symName: __ZNSt3__14pairIKNS_12basic_stringIcNS_11char_traitsIcEENS_9allocatorIcEEEEiEC1B8ue170006IJRS7_EJEEENS_21piecewise_construct_tENS_5tupleIJDpT_EEENSC_IJDpT0_EEE, symObjAddr: 0x4A8C, symBinAddr: 0x100007F54, symSize: 0x3C }
  - { offsetInCU: 0x1A35F, offset: 0x1D3CE, size: 0x8, addend: 0x0, symName: __ZNSt3__14pairIKNS_12basic_stringIcNS_11char_traitsIcEENS_9allocatorIcEEEEiEC1B8ue170006IJRS7_EJEJLm0EEJEEENS_21piecewise_construct_tERNS_5tupleIJDpT_EEERNSC_IJDpT0_EEENS_15__tuple_indicesIJXspT1_EEEENSL_IJXspT2_EEEE, symObjAddr: 0x4AC8, symBinAddr: 0x100007F90, symSize: 0x3C }
  - { offsetInCU: 0x1A3EE, offset: 0x1D45D, size: 0x8, addend: 0x0, symName: __ZNSt3__14pairIKNS_12basic_stringIcNS_11char_traitsIcEENS_9allocatorIcEEEEiEC2B8ue170006IJRS7_EJEJLm0EEJEEENS_21piecewise_construct_tERNS_5tupleIJDpT_EEERNSC_IJDpT0_EEENS_15__tuple_indicesIJXspT1_EEEENSL_IJXspT2_EEEE, symObjAddr: 0x4B04, symBinAddr: 0x100007FCC, symSize: 0x48 }
  - { offsetInCU: 0x1A47D, offset: 0x1D4EC, size: 0x8, addend: 0x0, symName: __ZNSt3__112__tuple_leafILm0ERKNS_12basic_stringIcNS_11char_traitsIcEENS_9allocatorIcEEEELb0EE3getB8ue170006Ev, symObjAddr: 0x4B70, symBinAddr: 0x100008038, symSize: 0x18 }
  - { offsetInCU: 0x1A4A2, offset: 0x1D511, size: 0x8, addend: 0x0, symName: __ZNSt3__117__compressed_pairIPNS_11__hash_nodeINS_17__hash_value_typeINS_12basic_stringIcNS_11char_traitsIcEENS_9allocatorIcEEEEiEEPvEENS_22__hash_node_destructorINS6_ISB_EEEEE6secondB8ue170006Ev, symObjAddr: 0x4B88, symBinAddr: 0x100008050, symSize: 0x28 }
  - { offsetInCU: 0x1A4C7, offset: 0x1D536, size: 0x8, addend: 0x0, symName: __ZNSt3__122__compressed_pair_elemINS_22__hash_node_destructorINS_9allocatorINS_11__hash_nodeINS_17__hash_value_typeINS_12basic_stringIcNS_11char_traitsIcEENS2_IcEEEEiEEPvEEEEEELi1ELb0EE5__getB8ue170006Ev, symObjAddr: 0x4BB0, symBinAddr: 0x100008078, symSize: 0x14 }
  - { offsetInCU: 0x1A4EC, offset: 0x1D55B, size: 0x8, addend: 0x0, symName: __ZNSt3__117__compressed_pairImNS_22__unordered_map_hasherINS_12basic_stringIcNS_11char_traitsIcEENS_9allocatorIcEEEENS_17__hash_value_typeIS7_iEENS_4hashIS7_EENS_8equal_toIS7_EELb1EEEE5firstB8ue170006Ev, symObjAddr: 0x4BC4, symBinAddr: 0x10000808C, symSize: 0x24 }
  - { offsetInCU: 0x1A511, offset: 0x1D580, size: 0x8, addend: 0x0, symName: __ZNSt3__117__compressed_pairIfNS_21__unordered_map_equalINS_12basic_stringIcNS_11char_traitsIcEENS_9allocatorIcEEEENS_17__hash_value_typeIS7_iEENS_8equal_toIS7_EENS_4hashIS7_EELb1EEEE5firstB8ue170006Ev, symObjAddr: 0x4BE8, symBinAddr: 0x1000080B0, symSize: 0x24 }
  - { offsetInCU: 0x1A536, offset: 0x1D5A5, size: 0x8, addend: 0x0, symName: __ZNSt3__122__compressed_pair_elemIfLi0ELb0EE5__getB8ue170006Ev, symObjAddr: 0x4C0C, symBinAddr: 0x1000080D4, symSize: 0x14 }
  - { offsetInCU: 0x1A55B, offset: 0x1D5CA, size: 0x8, addend: 0x0, symName: __ZNSt3__112__hash_tableINS_17__hash_value_typeINS_12basic_stringIcNS_11char_traitsIcEENS_9allocatorIcEEEEiEENS_22__unordered_map_hasherIS7_S8_NS_4hashIS7_EENS_8equal_toIS7_EELb1EEENS_21__unordered_map_equalIS7_S8_SD_SB_Lb1EEENS5_IS8_EEE8__rehashILb1EEEvm, symObjAddr: 0x4C20, symBinAddr: 0x1000080E8, symSize: 0x1A8 }
  - { offsetInCU: 0x1A5AA, offset: 0x1D619, size: 0x8, addend: 0x0, symName: __ZNSt3__112__hash_tableINS_17__hash_value_typeINS_12basic_stringIcNS_11char_traitsIcEENS_9allocatorIcEEEEiEENS_22__unordered_map_hasherIS7_S8_NS_4hashIS7_EENS_8equal_toIS7_EELb1EEENS_21__unordered_map_equalIS7_S8_SD_SB_Lb1EEENS5_IS8_EEE11__do_rehashILb1EEEvm, symObjAddr: 0x4DC8, symBinAddr: 0x100008290, symSize: 0x288 }
  - { offsetInCU: 0x1A690, offset: 0x1D6FF, size: 0x8, addend: 0x0, symName: __ZNSt3__110unique_ptrIA_PNS_16__hash_node_baseIPNS_11__hash_nodeINS_17__hash_value_typeINS_12basic_stringIcNS_11char_traitsIcEENS_9allocatorIcEEEEiEEPvEEEENS_25__bucket_list_deallocatorINS7_ISF_EEEEE11get_deleterB8ue170006Ev, symObjAddr: 0x50BC, symBinAddr: 0x100008584, symSize: 0x24 }
  - { offsetInCU: 0x1A6B5, offset: 0x1D724, size: 0x8, addend: 0x0, symName: __ZNSt3__110unique_ptrIA_PNS_16__hash_node_baseIPNS_11__hash_nodeINS_17__hash_value_typeINS_12basic_stringIcNS_11char_traitsIcEENS_9allocatorIcEEEEiEEPvEEEENS_25__bucket_list_deallocatorINS7_ISF_EEEEE5resetB8ue170006IPSF_EENS_9enable_ifIXsr28_CheckArrayPointerConversionIT_EE5valueEvE4typeESO_, symObjAddr: 0x50E0, symBinAddr: 0x1000085A8, symSize: 0x78 }
  - { offsetInCU: 0x1A701, offset: 0x1D770, size: 0x8, addend: 0x0, symName: __ZNSt3__116allocator_traitsINS_9allocatorIPNS_16__hash_node_baseIPNS_11__hash_nodeINS_17__hash_value_typeINS_12basic_stringIcNS_11char_traitsIcEENS1_IcEEEEiEEPvEEEEEEE8allocateB8ue170006ERSG_m, symObjAddr: 0x5158, symBinAddr: 0x100008620, symSize: 0x2C }
  - { offsetInCU: 0x1A734, offset: 0x1D7A3, size: 0x8, addend: 0x0, symName: __ZNSt3__19allocatorIPNS_16__hash_node_baseIPNS_11__hash_nodeINS_17__hash_value_typeINS_12basic_stringIcNS_11char_traitsIcEENS0_IcEEEEiEEPvEEEEE8allocateB8ue170006Em, symObjAddr: 0x5184, symBinAddr: 0x10000864C, symSize: 0x58 }
  - { offsetInCU: 0x1A772, offset: 0x1D7E1, size: 0x8, addend: 0x0, symName: __ZNSt3__116allocator_traitsINS_9allocatorIPNS_16__hash_node_baseIPNS_11__hash_nodeINS_17__hash_value_typeINS_12basic_stringIcNS_11char_traitsIcEENS1_IcEEEEiEEPvEEEEEEE8max_sizeB8ue170006ISG_vvEEmRKSG_, symObjAddr: 0x51DC, symBinAddr: 0x1000086A4, symSize: 0x28 }
  - { offsetInCU: 0x1A7A8, offset: 0x1D817, size: 0x8, addend: 0x0, symName: __ZNKSt3__16__lessIvvEclB8ue170006ImmEEbRKT_RKT0_, symObjAddr: 0x5274, symBinAddr: 0x10000873C, symSize: 0x34 }
  - { offsetInCU: 0x1A7FB, offset: 0x1D86A, size: 0x8, addend: 0x0, symName: __ZNKSt3__117__compressed_pairIPNS_11__hash_nodeINS_17__hash_value_typeINS_12basic_stringIcNS_11char_traitsIcEENS_9allocatorIcEEEEiEEPvEENS_22__hash_node_destructorINS6_ISB_EEEEE5firstB8ue170006Ev, symObjAddr: 0x52A8, symBinAddr: 0x100008770, symSize: 0x24 }
  - { offsetInCU: 0x1A820, offset: 0x1D88F, size: 0x8, addend: 0x0, symName: __ZNKSt3__122__compressed_pair_elemIPNS_11__hash_nodeINS_17__hash_value_typeINS_12basic_stringIcNS_11char_traitsIcEENS_9allocatorIcEEEEiEEPvEELi0ELb0EE5__getB8ue170006Ev, symObjAddr: 0x52CC, symBinAddr: 0x100008794, symSize: 0x14 }
  - { offsetInCU: 0x1A845, offset: 0x1D8B4, size: 0x8, addend: 0x0, symName: __ZNSt3__117__compressed_pairIPNS_11__hash_nodeINS_17__hash_value_typeINS_12basic_stringIcNS_11char_traitsIcEENS_9allocatorIcEEEEiEEPvEENS_22__hash_node_destructorINS6_ISB_EEEEE5firstB8ue170006Ev, symObjAddr: 0x52E0, symBinAddr: 0x1000087A8, symSize: 0x24 }
  - { offsetInCU: 0x1A86A, offset: 0x1D8D9, size: 0x8, addend: 0x0, symName: __ZNSt3__122__compressed_pair_elemIPNS_11__hash_nodeINS_17__hash_value_typeINS_12basic_stringIcNS_11char_traitsIcEENS_9allocatorIcEEEEiEEPvEELi0ELb0EE5__getB8ue170006Ev, symObjAddr: 0x5304, symBinAddr: 0x1000087CC, symSize: 0x14 }
  - { offsetInCU: 0x1A88F, offset: 0x1D8FE, size: 0x8, addend: 0x0, symName: __ZNSt3__110unique_ptrINS_11__hash_nodeINS_17__hash_value_typeINS_12basic_stringIcNS_11char_traitsIcEENS_9allocatorIcEEEEiEEPvEENS_22__hash_node_destructorINS6_ISB_EEEEED2B8ue170006Ev, symObjAddr: 0x5318, symBinAddr: 0x1000087E0, symSize: 0x30 }
  - { offsetInCU: 0x1A8B8, offset: 0x1D927, size: 0x8, addend: 0x0, symName: __ZNSt3__110unique_ptrINS_11__hash_nodeINS_17__hash_value_typeINS_12basic_stringIcNS_11char_traitsIcEENS_9allocatorIcEEEEiEEPvEENS_22__hash_node_destructorINS6_ISB_EEEEE5resetB8ue170006EPSB_, symObjAddr: 0x5348, symBinAddr: 0x100008810, symSize: 0x78 }
  - { offsetInCU: 0x1A8FB, offset: 0x1D96A, size: 0x8, addend: 0x0, symName: __ZNSt3__122__hash_node_destructorINS_9allocatorINS_11__hash_nodeINS_17__hash_value_typeINS_12basic_stringIcNS_11char_traitsIcEENS1_IcEEEEiEEPvEEEEEclB8ue170006EPSB_, symObjAddr: 0x53C0, symBinAddr: 0x100008888, symSize: 0x98 }
  - { offsetInCU: 0x1A92F, offset: 0x1D99E, size: 0x8, addend: 0x0, symName: __ZNSt3__14pairINS_15__hash_iteratorIPNS_11__hash_nodeINS_17__hash_value_typeINS_12basic_stringIcNS_11char_traitsIcEENS_9allocatorIcEEEEiEEPvEEEEbEC2B8ue170006ISE_RbLSB_0EEEOT_OT0_, symObjAddr: 0x5458, symBinAddr: 0x100008920, symSize: 0x38 }
  - { offsetInCU: 0x1A98C, offset: 0x1D9FB, size: 0x8, addend: 0x0, symName: __ZNSt3__15tupleIJRKNS_12basic_stringIcNS_11char_traitsIcEENS_9allocatorIcEEEEEEC1B8ue170006INS_4_AndELi0EEES8_, symObjAddr: 0x5490, symBinAddr: 0x100008958, symSize: 0x34 }
  - { offsetInCU: 0x1A9D3, offset: 0x1DA42, size: 0x8, addend: 0x0, symName: __ZNSt3__15tupleIJRKNS_12basic_stringIcNS_11char_traitsIcEENS_9allocatorIcEEEEEEC2B8ue170006INS_4_AndELi0EEES8_, symObjAddr: 0x54C4, symBinAddr: 0x10000898C, symSize: 0x34 }
  - { offsetInCU: 0x1AA1A, offset: 0x1DA89, size: 0x8, addend: 0x0, symName: __ZNSt3__112__tuple_implINS_15__tuple_indicesIJLm0EEEEJRKNS_12basic_stringIcNS_11char_traitsIcEENS_9allocatorIcEEEEEEC1B8ue170006IJLm0EEJSA_EJEJEJSA_EEENS1_IJXspT_EEEENS_13__tuple_typesIJDpT0_EEENS1_IJXspT1_EEEENSE_IJDpT2_EEEDpOT3_, symObjAddr: 0x54F8, symBinAddr: 0x1000089C0, symSize: 0x34 }
  - { offsetInCU: 0x1AAAE, offset: 0x1DB1D, size: 0x8, addend: 0x0, symName: __ZNSt3__112__tuple_implINS_15__tuple_indicesIJLm0EEEEJRKNS_12basic_stringIcNS_11char_traitsIcEENS_9allocatorIcEEEEEEC2B8ue170006IJLm0EEJSA_EJEJEJSA_EEENS1_IJXspT_EEEENS_13__tuple_typesIJDpT0_EEENS1_IJXspT1_EEEENSE_IJDpT2_EEEDpOT3_, symObjAddr: 0x552C, symBinAddr: 0x1000089F4, symSize: 0x34 }
  - { offsetInCU: 0x1AB42, offset: 0x1DBB1, size: 0x8, addend: 0x0, symName: __ZNSt3__112__tuple_leafILm0ERKNS_12basic_stringIcNS_11char_traitsIcEENS_9allocatorIcEEEELb0EEC2B8ue170006IS8_vEEOT_, symObjAddr: 0x5560, symBinAddr: 0x100008A28, symSize: 0x20 }
  - { offsetInCU: 0x1AB84, offset: 0x1DBF3, size: 0x8, addend: 0x0, symName: __ZNSt3__114pointer_traitsIPNS_17__hash_value_typeINS_12basic_stringIcNS_11char_traitsIcEENS_9allocatorIcEEEEiEEE10pointer_toB8ue170006ERS8_, symObjAddr: 0x5580, symBinAddr: 0x100008A48, symSize: 0x14 }
  - { offsetInCU: 0x1ABA7, offset: 0x1DC16, size: 0x8, addend: 0x0, symName: __ZNSt3__111char_traitsIcE6lengthB8ue170006EPKc, symObjAddr: 0x5780, symBinAddr: 0x100008C48, symSize: 0x34 }
  - { offsetInCU: 0x1ABEB, offset: 0x1DC5A, size: 0x8, addend: 0x0, symName: __ZNKSt3__113basic_ostreamIcNS_11char_traitsIcEEE6sentrycvbB8ue170006Ev, symObjAddr: 0x57B4, symBinAddr: 0x100008C7C, symSize: 0x1C }
  - { offsetInCU: 0x1AC10, offset: 0x1DC7F, size: 0x8, addend: 0x0, symName: __ZNSt3__119ostreambuf_iteratorIcNS_11char_traitsIcEEEC1B8ue170006ERNS_13basic_ostreamIcS2_EE, symObjAddr: 0x5A10, symBinAddr: 0x100008ED8, symSize: 0x34 }
  - { offsetInCU: 0x1AC47, offset: 0x1DCB6, size: 0x8, addend: 0x0, symName: __ZNKSt3__18ios_base5flagsB8ue170006Ev, symObjAddr: 0x5A44, symBinAddr: 0x100008F0C, symSize: 0x18 }
  - { offsetInCU: 0x1AC6E, offset: 0x1DCDD, size: 0x8, addend: 0x0, symName: __ZNKSt3__19basic_iosIcNS_11char_traitsIcEEE4fillB8ue170006Ev, symObjAddr: 0x5A5C, symBinAddr: 0x100008F24, symSize: 0x64 }
  - { offsetInCU: 0x1AC95, offset: 0x1DD04, size: 0x8, addend: 0x0, symName: __ZNKSt3__119ostreambuf_iteratorIcNS_11char_traitsIcEEE6failedB8ue170006Ev, symObjAddr: 0x5AC0, symBinAddr: 0x100008F88, symSize: 0x24 }
  - { offsetInCU: 0x1ACBA, offset: 0x1DD29, size: 0x8, addend: 0x0, symName: __ZNSt3__19basic_iosIcNS_11char_traitsIcEEE8setstateB8ue170006Ej, symObjAddr: 0x5AE4, symBinAddr: 0x100008FAC, symSize: 0x2C }
  - { offsetInCU: 0x1ACEE, offset: 0x1DD5D, size: 0x8, addend: 0x0, symName: __ZNKSt3__18ios_base5widthB8ue170006Ev, symObjAddr: 0x5B10, symBinAddr: 0x100008FD8, symSize: 0x18 }
  - { offsetInCU: 0x1AD15, offset: 0x1DD84, size: 0x8, addend: 0x0, symName: __ZNSt3__115basic_streambufIcNS_11char_traitsIcEEE5sputnB8ue170006EPKcl, symObjAddr: 0x5B28, symBinAddr: 0x100008FF0, symSize: 0x3C }
  - { offsetInCU: 0x1AD56, offset: 0x1DDC5, size: 0x8, addend: 0x0, symName: __ZNSt3__112basic_stringIcNS_11char_traitsIcEENS_9allocatorIcEEEC1B8ue170006Emc, symObjAddr: 0x5B64, symBinAddr: 0x10000902C, symSize: 0x3C }
  - { offsetInCU: 0x1AD9D, offset: 0x1DE0C, size: 0x8, addend: 0x0, symName: __ZNSt3__112basic_stringIcNS_11char_traitsIcEENS_9allocatorIcEEE4dataB8ue170006Ev, symObjAddr: 0x5BA0, symBinAddr: 0x100009068, symSize: 0x28 }
  - { offsetInCU: 0x1ADC2, offset: 0x1DE31, size: 0x8, addend: 0x0, symName: __ZNSt3__18ios_base5widthB8ue170006El, symObjAddr: 0x5BC8, symBinAddr: 0x100009090, symSize: 0x2C }
  - { offsetInCU: 0x1AE07, offset: 0x1DE76, size: 0x8, addend: 0x0, symName: __ZNSt3__112basic_stringIcNS_11char_traitsIcEENS_9allocatorIcEEEC2B8ue170006Emc, symObjAddr: 0x5BF4, symBinAddr: 0x1000090BC, symSize: 0x4C }
  - { offsetInCU: 0x1AE4E, offset: 0x1DEBD, size: 0x8, addend: 0x0, symName: __ZNSt3__112basic_stringIcNS_11char_traitsIcEENS_9allocatorIcEEE13__get_pointerB8ue170006Ev, symObjAddr: 0x5C54, symBinAddr: 0x10000911C, symSize: 0x54 }
  - { offsetInCU: 0x1AE73, offset: 0x1DEE2, size: 0x8, addend: 0x0, symName: __ZNSt3__112basic_stringIcNS_11char_traitsIcEENS_9allocatorIcEEE18__get_long_pointerB8ue170006Ev, symObjAddr: 0x5CA8, symBinAddr: 0x100009170, symSize: 0x28 }
  - { offsetInCU: 0x1AE98, offset: 0x1DF07, size: 0x8, addend: 0x0, symName: __ZNSt3__112basic_stringIcNS_11char_traitsIcEENS_9allocatorIcEEE19__get_short_pointerB8ue170006Ev, symObjAddr: 0x5CD0, symBinAddr: 0x100009198, symSize: 0x28 }
  - { offsetInCU: 0x1AEBD, offset: 0x1DF2C, size: 0x8, addend: 0x0, symName: __ZNSt3__114pointer_traitsIPcE10pointer_toB8ue170006ERc, symObjAddr: 0x5CF8, symBinAddr: 0x1000091C0, symSize: 0x14 }
  - { offsetInCU: 0x1AEE0, offset: 0x1DF4F, size: 0x8, addend: 0x0, symName: __ZNSt3__119ostreambuf_iteratorIcNS_11char_traitsIcEEEC2B8ue170006ERNS_13basic_ostreamIcS2_EE, symObjAddr: 0x5D0C, symBinAddr: 0x1000091D4, symSize: 0x54 }
  - { offsetInCU: 0x1AF17, offset: 0x1DF86, size: 0x8, addend: 0x0, symName: __ZNKSt3__19basic_iosIcNS_11char_traitsIcEEE5rdbufB8ue170006Ev, symObjAddr: 0x5D60, symBinAddr: 0x100009228, symSize: 0x24 }
  - { offsetInCU: 0x1AF3E, offset: 0x1DFAD, size: 0x8, addend: 0x0, symName: __ZNKSt3__18ios_base5rdbufB8ue170006Ev, symObjAddr: 0x5D84, symBinAddr: 0x10000924C, symSize: 0x18 }
  - { offsetInCU: 0x1AF63, offset: 0x1DFD2, size: 0x8, addend: 0x0, symName: __ZNSt3__111char_traitsIcE11eq_int_typeB8ue170006Eii, symObjAddr: 0x5D9C, symBinAddr: 0x100009264, symSize: 0x28 }
  - { offsetInCU: 0x1AF96, offset: 0x1E005, size: 0x8, addend: 0x0, symName: __ZNSt3__111char_traitsIcE3eofB8ue170006Ev, symObjAddr: 0x5DC4, symBinAddr: 0x10000928C, symSize: 0x8 }
  - { offsetInCU: 0x1AFAA, offset: 0x1E019, size: 0x8, addend: 0x0, symName: __ZNKSt3__19basic_iosIcNS_11char_traitsIcEEE5widenB8ue170006Ec, symObjAddr: 0x5DCC, symBinAddr: 0x100009294, symSize: 0x84 }
  - { offsetInCU: 0x1B017, offset: 0x1E086, size: 0x8, addend: 0x0, symName: __ZNKSt3__15ctypeIcE5widenB8ue170006Ec, symObjAddr: 0x5E7C, symBinAddr: 0x100009344, symSize: 0x38 }
  - { offsetInCU: 0x1B04B, offset: 0x1E0BA, size: 0x8, addend: 0x0, symName: __ZNSt3__18ios_base8setstateB8ue170006Ej, symObjAddr: 0x5EB4, symBinAddr: 0x10000937C, symSize: 0x34 }
  - { offsetInCU: 0x1B081, offset: 0x1E0F0, size: 0x8, addend: 0x0, symName: __ZNSt3__19basic_iosIcNS_11char_traitsIcEEEC2B8ue170006Ev, symObjAddr: 0x5F0C, symBinAddr: 0x1000093D4, symSize: 0x44 }
  - { offsetInCU: 0x1B0AA, offset: 0x1E119, size: 0x8, addend: 0x0, symName: __ZNSt3__113basic_istreamIcNS_11char_traitsIcEEEC2B8ue170006EPNS_15basic_streambufIcS2_EE, symObjAddr: 0x5F50, symBinAddr: 0x100009418, symSize: 0x64 }
  - { offsetInCU: 0x1B0ED, offset: 0x1E15C, size: 0x8, addend: 0x0, symName: __ZNSt3__113basic_filebufIcNS_11char_traitsIcEEE4openERKNS_12basic_stringIcS2_NS_9allocatorIcEEEEj, symObjAddr: 0x5FB4, symBinAddr: 0x10000947C, symSize: 0x44 }
  - { offsetInCU: 0x1B130, offset: 0x1E19F, size: 0x8, addend: 0x0, symName: __ZNSt3__18ios_baseC2B8ue170006Ev, symObjAddr: 0x5FF8, symBinAddr: 0x1000094C0, symSize: 0x24 }
  - { offsetInCU: 0x1B159, offset: 0x1E1C8, size: 0x8, addend: 0x0, symName: __ZNSt3__19basic_iosIcNS_11char_traitsIcEEE4initB8ue170006EPNS_15basic_streambufIcS2_EE, symObjAddr: 0x601C, symBinAddr: 0x1000094E4, symSize: 0x44 }
  - { offsetInCU: 0x1B18F, offset: 0x1E1FE, size: 0x8, addend: 0x0, symName: __ZNSt3__114basic_iostreamIcNS_11char_traitsIcEEEC2B8ue170006EPNS_15basic_streambufIcS2_EE, symObjAddr: 0x6060, symBinAddr: 0x100009528, symSize: 0xAC }
  - { offsetInCU: 0x1B1D3, offset: 0x1E242, size: 0x8, addend: 0x0, symName: __ZNSt3__115basic_stringbufIcNS_11char_traitsIcEENS_9allocatorIcEEEC1B8ue170006Ej, symObjAddr: 0x610C, symBinAddr: 0x1000095D4, symSize: 0x34 }
  - { offsetInCU: 0x1B20B, offset: 0x1E27A, size: 0x8, addend: 0x0, symName: __ZNSt3__113basic_ostreamIcNS_11char_traitsIcEEEC2B8ue170006Ev, symObjAddr: 0x6140, symBinAddr: 0x100009608, symSize: 0x34 }
  - { offsetInCU: 0x1B240, offset: 0x1E2AF, size: 0x8, addend: 0x0, symName: __ZNSt3__115basic_stringbufIcNS_11char_traitsIcEENS_9allocatorIcEEEC2B8ue170006Ej, symObjAddr: 0x6174, symBinAddr: 0x10000963C, symSize: 0x60 }
  - { offsetInCU: 0x1B299, offset: 0x1E308, size: 0x8, addend: 0x0, symName: __ZNKSt3__113basic_istreamIcNS_11char_traitsIcEEE6sentrycvbB8ue170006Ev, symObjAddr: 0x640C, symBinAddr: 0x1000098D4, symSize: 0x1C }
  - { offsetInCU: 0x1B2BE, offset: 0x1E32D, size: 0x8, addend: 0x0, symName: __ZNSt3__112basic_stringIcNS_11char_traitsIcEENS_9allocatorIcEEE5clearB8ue170006Ev, symObjAddr: 0x6428, symBinAddr: 0x1000098F0, symSize: 0x78 }
  - { offsetInCU: 0x1B2E5, offset: 0x1E354, size: 0x8, addend: 0x0, symName: __ZNSt3__115basic_streambufIcNS_11char_traitsIcEEE6sbumpcB8ue170006Ev, symObjAddr: 0x64A0, symBinAddr: 0x100009968, symSize: 0x78 }
  - { offsetInCU: 0x1B30A, offset: 0x1E379, size: 0x8, addend: 0x0, symName: __ZNSt3__111char_traitsIcE12to_char_typeB8ue170006Ei, symObjAddr: 0x6518, symBinAddr: 0x1000099E0, symSize: 0x18 }
  - { offsetInCU: 0x1B32D, offset: 0x1E39C, size: 0x8, addend: 0x0, symName: __ZNSt3__111char_traitsIcE2eqEcc, symObjAddr: 0x6530, symBinAddr: 0x1000099F8, symSize: 0x28 }
  - { offsetInCU: 0x1B35E, offset: 0x1E3CD, size: 0x8, addend: 0x0, symName: __ZNKSt3__112basic_stringIcNS_11char_traitsIcEENS_9allocatorIcEEE8max_sizeB8ue170006Ev, symObjAddr: 0x6558, symBinAddr: 0x100009A20, symSize: 0xAC }
  - { offsetInCU: 0x1B3B0, offset: 0x1E41F, size: 0x8, addend: 0x0, symName: __ZNSt3__18ios_base18__setstate_nothrowB8ue170006Ej, symObjAddr: 0x6604, symBinAddr: 0x100009ACC, symSize: 0x64 }
  - { offsetInCU: 0x1B3E4, offset: 0x1E453, size: 0x8, addend: 0x0, symName: __ZNKSt3__19basic_iosIcNS_11char_traitsIcEEE10exceptionsB8ue170006Ev, symObjAddr: 0x6668, symBinAddr: 0x100009B30, symSize: 0x24 }
  - { offsetInCU: 0x1B409, offset: 0x1E478, size: 0x8, addend: 0x0, symName: __ZNSt3__111char_traitsIcE6assignB8ue170006ERcRKc, symObjAddr: 0x668C, symBinAddr: 0x100009B54, symSize: 0x24 }
  - { offsetInCU: 0x1B43A, offset: 0x1E4A9, size: 0x8, addend: 0x0, symName: __ZNSt3__112basic_stringIcNS_11char_traitsIcEENS_9allocatorIcEEE15__set_long_sizeB8ue170006Em, symObjAddr: 0x66B0, symBinAddr: 0x100009B78, symSize: 0x38 }
  - { offsetInCU: 0x1B46E, offset: 0x1E4DD, size: 0x8, addend: 0x0, symName: __ZNSt3__112basic_stringIcNS_11char_traitsIcEENS_9allocatorIcEEE16__set_short_sizeB8ue170006Em, symObjAddr: 0x66E8, symBinAddr: 0x100009BB0, symSize: 0x78 }
  - { offsetInCU: 0x1B4A2, offset: 0x1E511, size: 0x8, addend: 0x0, symName: __ZNSt3__111char_traitsIcE11to_int_typeB8ue170006Ec, symObjAddr: 0x6760, symBinAddr: 0x100009C28, symSize: 0x14 }
  - { offsetInCU: 0x1B4D1, offset: 0x1E540, size: 0x8, addend: 0x0, symName: __ZNSt3__116allocator_traitsINS_9allocatorIcEEE8max_sizeB8ue170006IS2_vvEEmRKS2_, symObjAddr: 0x6774, symBinAddr: 0x100009C3C, symSize: 0x28 }
  - { offsetInCU: 0x1B4FD, offset: 0x1E56C, size: 0x8, addend: 0x0, symName: __ZNKSt3__112basic_stringIcNS_11char_traitsIcEENS_9allocatorIcEEE7__allocB8ue170006Ev, symObjAddr: 0x679C, symBinAddr: 0x100009C64, symSize: 0x24 }
  - { offsetInCU: 0x1B522, offset: 0x1E591, size: 0x8, addend: 0x0, symName: __ZNKSt3__117__compressed_pairINS_12basic_stringIcNS_11char_traitsIcEENS_9allocatorIcEEE5__repES5_E6secondB8ue170006Ev, symObjAddr: 0x67C0, symBinAddr: 0x100009C88, symSize: 0x24 }
  - { offsetInCU: 0x1B547, offset: 0x1E5B6, size: 0x8, addend: 0x0, symName: __ZNKSt3__122__compressed_pair_elemINS_9allocatorIcEELi1ELb1EE5__getB8ue170006Ev, symObjAddr: 0x67E4, symBinAddr: 0x100009CAC, symSize: 0x14 }
  - { offsetInCU: 0x1B56C, offset: 0x1E5DB, size: 0x8, addend: 0x0, symName: __ZNKSt3__18ios_base10exceptionsB8ue170006Ev, symObjAddr: 0x67F8, symBinAddr: 0x100009CC0, symSize: 0x18 }
  - { offsetInCU: 0x1B593, offset: 0x1E602, size: 0x8, addend: 0x0, symName: __ZNKSt3__19basic_iosIcNS_11char_traitsIcEEE4failB8ue170006Ev, symObjAddr: 0x6810, symBinAddr: 0x100009CD8, symSize: 0x28 }
  - { offsetInCU: 0x1B5B8, offset: 0x1E627, size: 0x8, addend: 0x0, symName: __ZNKSt3__18ios_base4failB8ue170006Ev, symObjAddr: 0x6838, symBinAddr: 0x100009D00, symSize: 0x28 }
  - { offsetInCU: 0x1B5DF, offset: 0x1E64E, size: 0x8, addend: 0x0, symName: __ZNKRSt3__115basic_stringbufIcNS_11char_traitsIcEENS_9allocatorIcEEE3strB8ue170006Ev, symObjAddr: 0x6860, symBinAddr: 0x100009D28, symSize: 0x44 }
  - { offsetInCU: 0x1B604, offset: 0x1E673, size: 0x8, addend: 0x0, symName: __ZNKSt3__115basic_stringbufIcNS_11char_traitsIcEENS_9allocatorIcEEE3strB8ue170006IS4_EENS_12basic_stringIcS2_T_EERKS8_, symObjAddr: 0x68A4, symBinAddr: 0x100009D6C, symSize: 0x50 }
  - { offsetInCU: 0x1B641, offset: 0x1E6B0, size: 0x8, addend: 0x0, symName: __ZNKSt3__112basic_stringIcNS_11char_traitsIcEENS_9allocatorIcEEE13get_allocatorB8ue170006Ev, symObjAddr: 0x68F4, symBinAddr: 0x100009DBC, symSize: 0x24 }
  - { offsetInCU: 0x1B666, offset: 0x1E6D5, size: 0x8, addend: 0x0, symName: __ZNKSt3__115basic_stringbufIcNS_11char_traitsIcEENS_9allocatorIcEEE4viewB8ue170006Ev, symObjAddr: 0x6918, symBinAddr: 0x100009DE0, symSize: 0x120 }
  - { offsetInCU: 0x1B692, offset: 0x1E701, size: 0x8, addend: 0x0, symName: __ZNSt3__112basic_stringIcNS_11char_traitsIcEENS_9allocatorIcEEEC1INS_17basic_string_viewIcS2_EELi0EEERKT_RKS4_, symObjAddr: 0x6A38, symBinAddr: 0x100009F00, symSize: 0x3C }
  - { offsetInCU: 0x1B6E8, offset: 0x1E757, size: 0x8, addend: 0x0, symName: __ZNKSt3__115basic_streambufIcNS_11char_traitsIcEEE4pptrB8ue170006Ev, symObjAddr: 0x6A74, symBinAddr: 0x100009F3C, symSize: 0x18 }
  - { offsetInCU: 0x1B70D, offset: 0x1E77C, size: 0x8, addend: 0x0, symName: __ZNKSt3__115basic_streambufIcNS_11char_traitsIcEEE5pbaseB8ue170006Ev, symObjAddr: 0x6A8C, symBinAddr: 0x100009F54, symSize: 0x18 }
  - { offsetInCU: 0x1B737, offset: 0x1E7A6, size: 0x8, addend: 0x0, symName: __ZNSt3__117basic_string_viewIcNS_11char_traitsIcEEEC1B8ue170006IPcS5_EET_T0_, symObjAddr: 0x6AA4, symBinAddr: 0x100009F6C, symSize: 0x3C }
  - { offsetInCU: 0x1B790, offset: 0x1E7FF, size: 0x8, addend: 0x0, symName: __ZNKSt3__115basic_streambufIcNS_11char_traitsIcEEE5ebackB8ue170006Ev, symObjAddr: 0x6AE0, symBinAddr: 0x100009FA8, symSize: 0x18 }
  - { offsetInCU: 0x1B7B5, offset: 0x1E824, size: 0x8, addend: 0x0, symName: __ZNKSt3__115basic_streambufIcNS_11char_traitsIcEEE5egptrB8ue170006Ev, symObjAddr: 0x6AF8, symBinAddr: 0x100009FC0, symSize: 0x18 }
  - { offsetInCU: 0x1B7DA, offset: 0x1E849, size: 0x8, addend: 0x0, symName: __ZNSt3__117basic_string_viewIcNS_11char_traitsIcEEEC1B8ue170006Ev, symObjAddr: 0x6B10, symBinAddr: 0x100009FD8, symSize: 0x2C }
  - { offsetInCU: 0x1B803, offset: 0x1E872, size: 0x8, addend: 0x0, symName: __ZNSt3__117basic_string_viewIcNS_11char_traitsIcEEEC2B8ue170006IPcS5_EET_T0_, symObjAddr: 0x6B3C, symBinAddr: 0x10000A004, symSize: 0x50 }
  - { offsetInCU: 0x1B85C, offset: 0x1E8CB, size: 0x8, addend: 0x0, symName: __ZNSt3__117basic_string_viewIcNS_11char_traitsIcEEEC2B8ue170006Ev, symObjAddr: 0x6BB0, symBinAddr: 0x10000A078, symSize: 0x1C }
  - { offsetInCU: 0x1B885, offset: 0x1E8F4, size: 0x8, addend: 0x0, symName: __ZNSt3__112basic_stringIcNS_11char_traitsIcEENS_9allocatorIcEEEC2INS_17basic_string_viewIcS2_EELi0EEERKT_RKS4_, symObjAddr: 0x6BCC, symBinAddr: 0x10000A094, symSize: 0x74 }
  - { offsetInCU: 0x1B8F9, offset: 0x1E968, size: 0x8, addend: 0x0, symName: __ZNSt3__117__compressed_pairINS_12basic_stringIcNS_11char_traitsIcEENS_9allocatorIcEEE5__repES5_EC1B8ue170006INS_18__default_init_tagERKS5_EEOT_OT0_, symObjAddr: 0x6C40, symBinAddr: 0x10000A108, symSize: 0x3C }
  - { offsetInCU: 0x1B950, offset: 0x1E9BF, size: 0x8, addend: 0x0, symName: __ZNKSt3__117basic_string_viewIcNS_11char_traitsIcEEE4dataB8ue170006Ev, symObjAddr: 0x6C7C, symBinAddr: 0x10000A144, symSize: 0x18 }
  - { offsetInCU: 0x1B975, offset: 0x1E9E4, size: 0x8, addend: 0x0, symName: __ZNKSt3__117basic_string_viewIcNS_11char_traitsIcEEE4sizeB8ue170006Ev, symObjAddr: 0x6C94, symBinAddr: 0x10000A15C, symSize: 0x18 }
  - { offsetInCU: 0x1B99A, offset: 0x1EA09, size: 0x8, addend: 0x0, symName: __ZNSt3__117__compressed_pairINS_12basic_stringIcNS_11char_traitsIcEENS_9allocatorIcEEE5__repES5_EC2B8ue170006INS_18__default_init_tagERKS5_EEOT_OT0_, symObjAddr: 0x6CAC, symBinAddr: 0x10000A174, symSize: 0x40 }
  - { offsetInCU: 0x1B9F1, offset: 0x1EA60, size: 0x8, addend: 0x0, symName: __ZNSt3__122__compressed_pair_elemINS_9allocatorIcEELi1ELb1EEC2B8ue170006IRKS2_vEEOT_, symObjAddr: 0x6CEC, symBinAddr: 0x10000A1B4, symSize: 0x18 }
  - { offsetInCU: 0x48BA, offset: 0x234E6, size: 0x8, addend: 0x0, symName: __ZNSt3__122__make_exception_guardB8ue170006INS_6vectorI19VertexBufferElementNS_9allocatorIS2_EEE16__destroy_vectorEEENS_28__exception_guard_exceptionsIT_EES8_, symObjAddr: 0x84C, symBinAddr: 0x10000AA0C, symSize: 0x40 }
  - { offsetInCU: 0x48F0, offset: 0x2351C, size: 0x8, addend: 0x0, symName: __ZNSt3__119__allocate_at_leastB8ue170006INS_9allocatorI19VertexBufferElementEEEENS_19__allocation_resultINS_16allocator_traitsIT_E7pointerEEERS6_m, symObjAddr: 0xB3C, symBinAddr: 0x10000ACFC, symSize: 0x40 }
  - { offsetInCU: 0x4934, offset: 0x23560, size: 0x8, addend: 0x0, symName: __ZNSt3__13minB8ue170006ImEERKT_S3_S3_, symObjAddr: 0xC94, symBinAddr: 0x10000AE54, symSize: 0x2C }
  - { offsetInCU: 0x4B62, offset: 0x2378E, size: 0x8, addend: 0x0, symName: __ZNSt3__13minB8ue170006ImNS_6__lessIvvEEEERKT_S5_S5_T0_, symObjAddr: 0xCFC, symBinAddr: 0x10000AEBC, symSize: 0x54 }
  - { offsetInCU: 0x4BBD, offset: 0x237E9, size: 0x8, addend: 0x0, symName: __ZNSt3__120__throw_length_errorB8ue170006EPKc, symObjAddr: 0xDA8, symBinAddr: 0x10000AF18, symSize: 0x64 }
  - { offsetInCU: 0x4BE8, offset: 0x23814, size: 0x8, addend: 0x0, symName: __ZNSt3__112__to_addressB8ue170006I19VertexBufferElementEEPT_S3_, symObjAddr: 0x10E4, symBinAddr: 0x10000B150, symSize: 0x14 }
  - { offsetInCU: 0x4C1E, offset: 0x2384A, size: 0x8, addend: 0x0, symName: __ZNSt3__130__uninitialized_allocator_copyB8ue170006INS_9allocatorI19VertexBufferElementEEPS2_S4_S4_EET2_RT_T0_T1_S5_, symObjAddr: 0x1194, symBinAddr: 0x10000B200, symSize: 0x80 }
  - { offsetInCU: 0x4CBB, offset: 0x238E7, size: 0x8, addend: 0x0, symName: __ZNSt3__114__unwrap_rangeB8ue170006IP19VertexBufferElementS2_EEDaT_T0_, symObjAddr: 0x128C, symBinAddr: 0x10000B2F8, symSize: 0x3C }
  - { offsetInCU: 0x4D08, offset: 0x23934, size: 0x8, addend: 0x0, symName: __ZNSt3__135__uninitialized_allocator_copy_implB8ue170006INS_9allocatorI19VertexBufferElementEES2_S2_S2_LPv0EEEPT2_RT_PT0_SA_S6_, symObjAddr: 0x12C8, symBinAddr: 0x10000B334, symSize: 0x38 }
  - { offsetInCU: 0x4D8A, offset: 0x239B6, size: 0x8, addend: 0x0, symName: __ZNSt3__113__unwrap_iterB8ue170006IP19VertexBufferElementNS_18__unwrap_iter_implIS2_Lb1EEELi0EEEDTclsrT0_8__unwrapclsr3stdE7declvalIT_EEEES6_, symObjAddr: 0x1300, symBinAddr: 0x10000B36C, symSize: 0x24 }
  - { offsetInCU: 0x4DCF, offset: 0x239FB, size: 0x8, addend: 0x0, symName: __ZNSt3__113__rewrap_iterB8ue170006IP19VertexBufferElementS2_NS_18__unwrap_iter_implIS2_Lb1EEEEET_S5_T0_, symObjAddr: 0x1324, symBinAddr: 0x10000B390, symSize: 0x3C }
  - { offsetInCU: 0x4F70, offset: 0x23B9C, size: 0x8, addend: 0x0, symName: __ZNSt3__14copyB8ue170006IP19VertexBufferElementS2_EET0_T_S4_S3_, symObjAddr: 0x1428, symBinAddr: 0x10000B494, symSize: 0x40 }
  - { offsetInCU: 0x4FCB, offset: 0x23BF7, size: 0x8, addend: 0x0, symName: __ZNSt3__16__copyB8ue170006INS_17_ClassicAlgPolicyEP19VertexBufferElementS3_S3_EENS_4pairIT0_T2_EES5_T1_S6_, symObjAddr: 0x1468, symBinAddr: 0x10000B4D4, symSize: 0x44 }
  - { offsetInCU: 0x5038, offset: 0x23C64, size: 0x8, addend: 0x0, symName: __ZNSt3__123__dispatch_copy_or_moveB8ue170006INS_17_ClassicAlgPolicyENS_11__copy_loopIS1_EENS_14__copy_trivialEP19VertexBufferElementS6_S6_EENS_4pairIT2_T4_EES8_T3_S9_, symObjAddr: 0x14AC, symBinAddr: 0x10000B518, symSize: 0x44 }
  - { offsetInCU: 0x50B7, offset: 0x23CE3, size: 0x8, addend: 0x0, symName: __ZNSt3__121__unwrap_and_dispatchB8ue170006INS_10__overloadINS_11__copy_loopINS_17_ClassicAlgPolicyEEENS_14__copy_trivialEEEP19VertexBufferElementS8_S8_Li0EEENS_4pairIT0_T2_EESA_T1_SB_, symObjAddr: 0x14F0, symBinAddr: 0x10000B55C, symSize: 0xB4 }
  - { offsetInCU: 0x518E, offset: 0x23DBA, size: 0x8, addend: 0x0, symName: __ZNSt3__19make_pairB8ue170006IP19VertexBufferElementS2_EENS_4pairINS_18__unwrap_ref_decayIT_E4typeENS4_IT0_E4typeEEEOS5_OS8_, symObjAddr: 0x15EC, symBinAddr: 0x10000B658, symSize: 0x38 }
  - { offsetInCU: 0x51DD, offset: 0x23E09, size: 0x8, addend: 0x0, symName: __ZNSt3__114__rewrap_rangeB8ue170006IP19VertexBufferElementS2_S2_EET0_S3_T1_, symObjAddr: 0x1624, symBinAddr: 0x10000B690, symSize: 0x2C }
  - { offsetInCU: 0x5233, offset: 0x23E5F, size: 0x8, addend: 0x0, symName: __ZNSt3__119__copy_trivial_implB8ue170006I19VertexBufferElementS1_EENS_4pairIPT_PT0_EES4_S4_S6_, symObjAddr: 0x1650, symBinAddr: 0x10000B6BC, symSize: 0x88 }
  - { offsetInCU: 0x529D, offset: 0x23EC9, size: 0x8, addend: 0x0, symName: __ZNSt3__119__constexpr_memmoveB8ue170006I19VertexBufferElementS1_Li0EEEPT_S3_PT0_NS_15__element_countE, symObjAddr: 0x16D8, symBinAddr: 0x10000B744, symSize: 0x68 }
  - { offsetInCU: 0x530D, offset: 0x23F39, size: 0x8, addend: 0x0, symName: __ZNSt3__19make_pairB8ue170006IRP19VertexBufferElementS2_EENS_4pairINS_18__unwrap_ref_decayIT_E4typeENS5_IT0_E4typeEEEOS6_OS9_, symObjAddr: 0x1740, symBinAddr: 0x10000B7AC, symSize: 0x38 }
  - { offsetInCU: 0x53AF, offset: 0x23FDB, size: 0x8, addend: 0x0, symName: __ZNSt3__110destroy_atB8ue170006I19VertexBufferElementLi0EEEvPT_, symObjAddr: 0x1B74, symBinAddr: 0x10000BBE0, symSize: 0x24 }
  - { offsetInCU: 0x53E7, offset: 0x24013, size: 0x8, addend: 0x0, symName: __ZNSt3__112__destroy_atB8ue170006I19VertexBufferElementLi0EEEvPT_, symObjAddr: 0x1B98, symBinAddr: 0x10000BC04, symSize: 0x10 }
  - { offsetInCU: 0x7A00, offset: 0x2662C, size: 0x8, addend: 0x0, symName: __ZN11VertexArrayC2Ev, symObjAddr: 0x0, symBinAddr: 0x10000A1CC, symSize: 0x7C }
  - { offsetInCU: 0x7A2A, offset: 0x26656, size: 0x8, addend: 0x0, symName: __ZN11VertexArrayC1Ev, symObjAddr: 0x7C, symBinAddr: 0x10000A248, symSize: 0x2C }
  - { offsetInCU: 0x7A54, offset: 0x26680, size: 0x8, addend: 0x0, symName: __ZN11VertexArrayD2Ev, symObjAddr: 0xA8, symBinAddr: 0x10000A274, symSize: 0x9C }
  - { offsetInCU: 0x7A7E, offset: 0x266AA, size: 0x8, addend: 0x0, symName: __ZN11VertexArrayD1Ev, symObjAddr: 0x150, symBinAddr: 0x10000A310, symSize: 0x2C }
  - { offsetInCU: 0x7AA8, offset: 0x266D4, size: 0x8, addend: 0x0, symName: __ZNK11VertexArray4BindEv, symObjAddr: 0x17C, symBinAddr: 0x10000A33C, symSize: 0x74 }
  - { offsetInCU: 0x7ACE, offset: 0x266FA, size: 0x8, addend: 0x0, symName: __ZNK11VertexArray6UnbindEv, symObjAddr: 0x1F0, symBinAddr: 0x10000A3B0, symSize: 0x68 }
  - { offsetInCU: 0x7AF4, offset: 0x26720, size: 0x8, addend: 0x0, symName: __ZN11VertexArray9AddBufferERK12VertexBufferRK18VertexBufferLayout, symObjAddr: 0x258, symBinAddr: 0x10000A418, symSize: 0x1E0 }
  - { offsetInCU: 0x7B7F, offset: 0x267AB, size: 0x8, addend: 0x0, symName: __ZNK18VertexBufferLayout11GetElementsEv, symObjAddr: 0x438, symBinAddr: 0x10000A5F8, symSize: 0x38 }
  - { offsetInCU: 0x7BA4, offset: 0x267D0, size: 0x8, addend: 0x0, symName: __ZNKSt3__16vectorI19VertexBufferElementNS_9allocatorIS1_EEE4sizeB8ue170006Ev, symObjAddr: 0x470, symBinAddr: 0x10000A630, symSize: 0x28 }
  - { offsetInCU: 0x7BCA, offset: 0x267F6, size: 0x8, addend: 0x0, symName: __ZNKSt3__16vectorI19VertexBufferElementNS_9allocatorIS1_EEEixB8ue170006Em, symObjAddr: 0x498, symBinAddr: 0x10000A658, symSize: 0x2C }
  - { offsetInCU: 0x7BFF, offset: 0x2682B, size: 0x8, addend: 0x0, symName: __ZNK18VertexBufferLayout9GetStrideEv, symObjAddr: 0x4C4, symBinAddr: 0x10000A684, symSize: 0x18 }
  - { offsetInCU: 0x7C25, offset: 0x26851, size: 0x8, addend: 0x0, symName: __ZN19VertexBufferElement7GetSizeEj, symObjAddr: 0x4DC, symBinAddr: 0x10000A69C, symSize: 0xA0 }
  - { offsetInCU: 0x7C48, offset: 0x26874, size: 0x8, addend: 0x0, symName: __ZNSt3__16vectorI19VertexBufferElementNS_9allocatorIS1_EEED1B8ue170006Ev, symObjAddr: 0x57C, symBinAddr: 0x10000A73C, symSize: 0x2C }
  - { offsetInCU: 0x7C71, offset: 0x2689D, size: 0x8, addend: 0x0, symName: __ZNSt3__16vectorI19VertexBufferElementNS_9allocatorIS1_EEEC1ERKS4_, symObjAddr: 0x5A8, symBinAddr: 0x10000A768, symSize: 0x34 }
  - { offsetInCU: 0x7CAB, offset: 0x268D7, size: 0x8, addend: 0x0, symName: __ZNSt3__16vectorI19VertexBufferElementNS_9allocatorIS1_EEEC2ERKS4_, symObjAddr: 0x5DC, symBinAddr: 0x10000A79C, symSize: 0x94 }
  - { offsetInCU: 0x7CF0, offset: 0x2691C, size: 0x8, addend: 0x0, symName: __ZNSt3__116allocator_traitsINS_9allocatorI19VertexBufferElementEEE37select_on_container_copy_constructionB8ue170006IS3_vvEES3_RKS3_, symObjAddr: 0x670, symBinAddr: 0x10000A830, symSize: 0x10 }
  - { offsetInCU: 0x7D1E, offset: 0x2694A, size: 0x8, addend: 0x0, symName: __ZNKSt3__16vectorI19VertexBufferElementNS_9allocatorIS1_EEE7__allocB8ue170006Ev, symObjAddr: 0x680, symBinAddr: 0x10000A840, symSize: 0x28 }
  - { offsetInCU: 0x7D50, offset: 0x2697C, size: 0x8, addend: 0x0, symName: __ZNSt3__117__compressed_pairIP19VertexBufferElementNS_9allocatorIS1_EEEC1B8ue170006IDnS4_EEOT_OT0_, symObjAddr: 0x6A8, symBinAddr: 0x10000A868, symSize: 0x3C }
  - { offsetInCU: 0x7DA6, offset: 0x269D2, size: 0x8, addend: 0x0, symName: __ZNSt3__16vectorI19VertexBufferElementNS_9allocatorIS1_EEE16__init_with_sizeB8ue170006IPS1_S6_EEvT_T0_m, symObjAddr: 0x6E4, symBinAddr: 0x10000A8A4, symSize: 0xB8 }
  - { offsetInCU: 0x7E19, offset: 0x26A45, size: 0x8, addend: 0x0, symName: __ZNKSt3__117__compressed_pairIP19VertexBufferElementNS_9allocatorIS1_EEE6secondB8ue170006Ev, symObjAddr: 0x79C, symBinAddr: 0x10000A95C, symSize: 0x24 }
  - { offsetInCU: 0x7E3E, offset: 0x26A6A, size: 0x8, addend: 0x0, symName: __ZNKSt3__122__compressed_pair_elemINS_9allocatorI19VertexBufferElementEELi1ELb1EE5__getB8ue170006Ev, symObjAddr: 0x7C0, symBinAddr: 0x10000A980, symSize: 0x14 }
  - { offsetInCU: 0x7E64, offset: 0x26A90, size: 0x8, addend: 0x0, symName: __ZNSt3__117__compressed_pairIP19VertexBufferElementNS_9allocatorIS1_EEEC2B8ue170006IDnS4_EEOT_OT0_, symObjAddr: 0x7D4, symBinAddr: 0x10000A994, symSize: 0x44 }
  - { offsetInCU: 0x7EBB, offset: 0x26AE7, size: 0x8, addend: 0x0, symName: __ZNSt3__122__compressed_pair_elemIP19VertexBufferElementLi0ELb0EEC2B8ue170006IDnvEEOT_, symObjAddr: 0x818, symBinAddr: 0x10000A9D8, symSize: 0x1C }
  - { offsetInCU: 0x7EFC, offset: 0x26B28, size: 0x8, addend: 0x0, symName: __ZNSt3__122__compressed_pair_elemINS_9allocatorI19VertexBufferElementEELi1ELb1EEC2B8ue170006IS3_vEEOT_, symObjAddr: 0x834, symBinAddr: 0x10000A9F4, symSize: 0x18 }
  - { offsetInCU: 0x7F3D, offset: 0x26B69, size: 0x8, addend: 0x0, symName: __ZNSt3__16vectorI19VertexBufferElementNS_9allocatorIS1_EEE16__destroy_vectorC1B8ue170006ERS4_, symObjAddr: 0x88C, symBinAddr: 0x10000AA4C, symSize: 0x34 }
  - { offsetInCU: 0x7F74, offset: 0x26BA0, size: 0x8, addend: 0x0, symName: __ZNSt3__16vectorI19VertexBufferElementNS_9allocatorIS1_EEE11__vallocateB8ue170006Em, symObjAddr: 0x8C0, symBinAddr: 0x10000AA80, symSize: 0xB4 }
  - { offsetInCU: 0x7FB8, offset: 0x26BE4, size: 0x8, addend: 0x0, symName: __ZNSt3__16vectorI19VertexBufferElementNS_9allocatorIS1_EEE18__construct_at_endIPS1_S6_EEvT_T0_m, symObjAddr: 0x974, symBinAddr: 0x10000AB34, symSize: 0x8C }
  - { offsetInCU: 0x802C, offset: 0x26C58, size: 0x8, addend: 0x0, symName: __ZNSt3__128__exception_guard_exceptionsINS_6vectorI19VertexBufferElementNS_9allocatorIS2_EEE16__destroy_vectorEE10__completeB8ue170006Ev, symObjAddr: 0xA00, symBinAddr: 0x10000ABC0, symSize: 0x1C }
  - { offsetInCU: 0x8052, offset: 0x26C7E, size: 0x8, addend: 0x0, symName: __ZNSt3__128__exception_guard_exceptionsINS_6vectorI19VertexBufferElementNS_9allocatorIS2_EEE16__destroy_vectorEED1B8ue170006Ev, symObjAddr: 0xA1C, symBinAddr: 0x10000ABDC, symSize: 0x2C }
  - { offsetInCU: 0x807B, offset: 0x26CA7, size: 0x8, addend: 0x0, symName: __ZNSt3__128__exception_guard_exceptionsINS_6vectorI19VertexBufferElementNS_9allocatorIS2_EEE16__destroy_vectorEEC1B8ue170006ES6_, symObjAddr: 0xA48, symBinAddr: 0x10000AC08, symSize: 0x34 }
  - { offsetInCU: 0x80B2, offset: 0x26CDE, size: 0x8, addend: 0x0, symName: __ZNSt3__128__exception_guard_exceptionsINS_6vectorI19VertexBufferElementNS_9allocatorIS2_EEE16__destroy_vectorEEC2B8ue170006ES6_, symObjAddr: 0xA7C, symBinAddr: 0x10000AC3C, symSize: 0x24 }
  - { offsetInCU: 0x80E9, offset: 0x26D15, size: 0x8, addend: 0x0, symName: __ZNSt3__16vectorI19VertexBufferElementNS_9allocatorIS1_EEE16__destroy_vectorC2B8ue170006ERS4_, symObjAddr: 0xAA0, symBinAddr: 0x10000AC60, symSize: 0x20 }
  - { offsetInCU: 0x8121, offset: 0x26D4D, size: 0x8, addend: 0x0, symName: __ZNKSt3__16vectorI19VertexBufferElementNS_9allocatorIS1_EEE8max_sizeEv, symObjAddr: 0xAC0, symBinAddr: 0x10000AC80, symSize: 0x60 }
  - { offsetInCU: 0x8147, offset: 0x26D73, size: 0x8, addend: 0x0, symName: __ZNKSt3__16vectorI19VertexBufferElementNS_9allocatorIS1_EEE20__throw_length_errorB8ue170006Ev, symObjAddr: 0xB20, symBinAddr: 0x10000ACE0, symSize: 0x1C }
  - { offsetInCU: 0x816C, offset: 0x26D98, size: 0x8, addend: 0x0, symName: __ZNSt3__16vectorI19VertexBufferElementNS_9allocatorIS1_EEE7__allocB8ue170006Ev, symObjAddr: 0xB7C, symBinAddr: 0x10000AD3C, symSize: 0x28 }
  - { offsetInCU: 0x8191, offset: 0x26DBD, size: 0x8, addend: 0x0, symName: __ZNSt3__16vectorI19VertexBufferElementNS_9allocatorIS1_EEE9__end_capB8ue170006Ev, symObjAddr: 0xBA4, symBinAddr: 0x10000AD64, symSize: 0x28 }
  - { offsetInCU: 0x81B6, offset: 0x26DE2, size: 0x8, addend: 0x0, symName: __ZNKSt3__16vectorI19VertexBufferElementNS_9allocatorIS1_EEE14__annotate_newB8ue170006Em, symObjAddr: 0xBCC, symBinAddr: 0x10000AD8C, symSize: 0xC8 }
  - { offsetInCU: 0x81EB, offset: 0x26E17, size: 0x8, addend: 0x0, symName: __ZNSt3__116allocator_traitsINS_9allocatorI19VertexBufferElementEEE8max_sizeB8ue170006IS3_vvEEmRKS3_, symObjAddr: 0xCC0, symBinAddr: 0x10000AE80, symSize: 0x28 }
  - { offsetInCU: 0x8217, offset: 0x26E43, size: 0x8, addend: 0x0, symName: __ZNSt3__114numeric_limitsIlE3maxB8ue170006Ev, symObjAddr: 0xCE8, symBinAddr: 0x10000AEA8, symSize: 0x14 }
  - { offsetInCU: 0x8236, offset: 0x26E62, size: 0x8, addend: 0x0, symName: __ZNSt3__123__libcpp_numeric_limitsIlLb1EE3maxB8ue170006Ev, symObjAddr: 0xDA0, symBinAddr: 0x10000AF10, symSize: 0x8 }
  - { offsetInCU: 0x824A, offset: 0x26E76, size: 0x8, addend: 0x0, symName: __ZNSt12length_errorC1B8ue170006EPKc, symObjAddr: 0xE0C, symBinAddr: 0x10000AF7C, symSize: 0x34 }
  - { offsetInCU: 0x8281, offset: 0x26EAD, size: 0x8, addend: 0x0, symName: __ZNSt12length_errorC2B8ue170006EPKc, symObjAddr: 0xE40, symBinAddr: 0x10000AFB0, symSize: 0x4C }
  - { offsetInCU: 0x82B7, offset: 0x26EE3, size: 0x8, addend: 0x0, symName: __ZNSt3__19allocatorI19VertexBufferElementE8allocateB8ue170006Em, symObjAddr: 0xE8C, symBinAddr: 0x10000AFFC, symSize: 0x5C }
  - { offsetInCU: 0x82EA, offset: 0x26F16, size: 0x8, addend: 0x0, symName: __ZNSt3__117__compressed_pairIP19VertexBufferElementNS_9allocatorIS1_EEE6secondB8ue170006Ev, symObjAddr: 0xFEC, symBinAddr: 0x10000B058, symSize: 0x24 }
  - { offsetInCU: 0x830F, offset: 0x26F3B, size: 0x8, addend: 0x0, symName: __ZNSt3__122__compressed_pair_elemINS_9allocatorI19VertexBufferElementEELi1ELb1EE5__getB8ue170006Ev, symObjAddr: 0x1010, symBinAddr: 0x10000B07C, symSize: 0x14 }
  - { offsetInCU: 0x8334, offset: 0x26F60, size: 0x8, addend: 0x0, symName: __ZNSt3__117__compressed_pairIP19VertexBufferElementNS_9allocatorIS1_EEE5firstB8ue170006Ev, symObjAddr: 0x1024, symBinAddr: 0x10000B090, symSize: 0x24 }
  - { offsetInCU: 0x8359, offset: 0x26F85, size: 0x8, addend: 0x0, symName: __ZNSt3__122__compressed_pair_elemIP19VertexBufferElementLi0ELb0EE5__getB8ue170006Ev, symObjAddr: 0x1048, symBinAddr: 0x10000B0B4, symSize: 0x14 }
  - { offsetInCU: 0x837E, offset: 0x26FAA, size: 0x8, addend: 0x0, symName: __ZNKSt3__16vectorI19VertexBufferElementNS_9allocatorIS1_EEE31__annotate_contiguous_containerB8ue170006EPKvS6_S6_S6_, symObjAddr: 0x105C, symBinAddr: 0x10000B0C8, symSize: 0x20 }
  - { offsetInCU: 0x83D3, offset: 0x26FFF, size: 0x8, addend: 0x0, symName: __ZNKSt3__16vectorI19VertexBufferElementNS_9allocatorIS1_EEE4dataB8ue170006Ev, symObjAddr: 0x107C, symBinAddr: 0x10000B0E8, symSize: 0x28 }
  - { offsetInCU: 0x83F8, offset: 0x27024, size: 0x8, addend: 0x0, symName: __ZNKSt3__16vectorI19VertexBufferElementNS_9allocatorIS1_EEE8capacityB8ue170006Ev, symObjAddr: 0x10A4, symBinAddr: 0x10000B110, symSize: 0x40 }
  - { offsetInCU: 0x841D, offset: 0x27049, size: 0x8, addend: 0x0, symName: __ZNKSt3__16vectorI19VertexBufferElementNS_9allocatorIS1_EEE9__end_capB8ue170006Ev, symObjAddr: 0x10F8, symBinAddr: 0x10000B164, symSize: 0x28 }
  - { offsetInCU: 0x8442, offset: 0x2706E, size: 0x8, addend: 0x0, symName: __ZNKSt3__117__compressed_pairIP19VertexBufferElementNS_9allocatorIS1_EEE5firstB8ue170006Ev, symObjAddr: 0x1120, symBinAddr: 0x10000B18C, symSize: 0x24 }
  - { offsetInCU: 0x8467, offset: 0x27093, size: 0x8, addend: 0x0, symName: __ZNKSt3__122__compressed_pair_elemIP19VertexBufferElementLi0ELb0EE5__getB8ue170006Ev, symObjAddr: 0x1144, symBinAddr: 0x10000B1B0, symSize: 0x14 }
  - { offsetInCU: 0x84A8, offset: 0x270D4, size: 0x8, addend: 0x0, symName: __ZNSt3__16vectorI19VertexBufferElementNS_9allocatorIS1_EEE21_ConstructTransactionC1B8ue170006ERS4_m, symObjAddr: 0x1158, symBinAddr: 0x10000B1C4, symSize: 0x3C }
  - { offsetInCU: 0x84EF, offset: 0x2711B, size: 0x8, addend: 0x0, symName: __ZNSt3__16vectorI19VertexBufferElementNS_9allocatorIS1_EEE21_ConstructTransactionD1B8ue170006Ev, symObjAddr: 0x1214, symBinAddr: 0x10000B280, symSize: 0x2C }
  - { offsetInCU: 0x8518, offset: 0x27144, size: 0x8, addend: 0x0, symName: __ZNSt3__16vectorI19VertexBufferElementNS_9allocatorIS1_EEE21_ConstructTransactionC2B8ue170006ERS4_m, symObjAddr: 0x1240, symBinAddr: 0x10000B2AC, symSize: 0x4C }
  - { offsetInCU: 0x857B, offset: 0x271A7, size: 0x8, addend: 0x0, symName: __ZNSt3__119__unwrap_range_implIP19VertexBufferElementS2_E8__unwrapB8ue170006ES2_S2_, symObjAddr: 0x1360, symBinAddr: 0x10000B3CC, symSize: 0x58 }
  - { offsetInCU: 0x85B2, offset: 0x271DE, size: 0x8, addend: 0x0, symName: __ZNSt3__14pairIP19VertexBufferElementS2_EC1B8ue170006IS2_S2_LPv0EEEOT_OT0_, symObjAddr: 0x13B8, symBinAddr: 0x10000B424, symSize: 0x3C }
  - { offsetInCU: 0x860F, offset: 0x2723B, size: 0x8, addend: 0x0, symName: __ZNSt3__14pairIP19VertexBufferElementS2_EC2B8ue170006IS2_S2_LPv0EEEOT_OT0_, symObjAddr: 0x13F4, symBinAddr: 0x10000B460, symSize: 0x34 }
  - { offsetInCU: 0x8675, offset: 0x272A1, size: 0x8, addend: 0x0, symName: __ZNKSt3__114__copy_trivialclB8ue170006I19VertexBufferElementS2_Li0EEENS_4pairIPT_PT0_EES5_S5_S7_, symObjAddr: 0x15A4, symBinAddr: 0x10000B610, symSize: 0x48 }
  - { offsetInCU: 0x86DD, offset: 0x27309, size: 0x8, addend: 0x0, symName: __ZNSt3__14pairIP19VertexBufferElementS2_EC1B8ue170006IRS2_S2_LPv0EEEOT_OT0_, symObjAddr: 0x1778, symBinAddr: 0x10000B7E4, symSize: 0x3C }
  - { offsetInCU: 0x873A, offset: 0x27366, size: 0x8, addend: 0x0, symName: __ZNSt3__14pairIP19VertexBufferElementS2_EC2B8ue170006IRS2_S2_LPv0EEEOT_OT0_, symObjAddr: 0x17B4, symBinAddr: 0x10000B820, symSize: 0x34 }
  - { offsetInCU: 0x8797, offset: 0x273C3, size: 0x8, addend: 0x0, symName: __ZNSt3__119__unwrap_range_implIP19VertexBufferElementS2_E8__rewrapB8ue170006ES2_S2_, symObjAddr: 0x17E8, symBinAddr: 0x10000B854, symSize: 0x2C }
  - { offsetInCU: 0x87C8, offset: 0x273F4, size: 0x8, addend: 0x0, symName: __ZNSt3__118__unwrap_iter_implIP19VertexBufferElementLb1EE8__unwrapB8ue170006ES2_, symObjAddr: 0x1814, symBinAddr: 0x10000B880, symSize: 0x24 }
  - { offsetInCU: 0x87EB, offset: 0x27417, size: 0x8, addend: 0x0, symName: __ZNSt3__118__unwrap_iter_implIP19VertexBufferElementLb1EE8__rewrapB8ue170006ES2_S2_, symObjAddr: 0x1838, symBinAddr: 0x10000B8A4, symSize: 0x58 }
  - { offsetInCU: 0x881C, offset: 0x27448, size: 0x8, addend: 0x0, symName: __ZNSt3__16vectorI19VertexBufferElementNS_9allocatorIS1_EEE21_ConstructTransactionD2B8ue170006Ev, symObjAddr: 0x1890, symBinAddr: 0x10000B8FC, symSize: 0x20 }
  - { offsetInCU: 0x8845, offset: 0x27471, size: 0x8, addend: 0x0, symName: __ZNSt3__128__exception_guard_exceptionsINS_6vectorI19VertexBufferElementNS_9allocatorIS2_EEE16__destroy_vectorEED2B8ue170006Ev, symObjAddr: 0x18B0, symBinAddr: 0x10000B91C, symSize: 0x50 }
  - { offsetInCU: 0x886D, offset: 0x27499, size: 0x8, addend: 0x0, symName: __ZNSt3__16vectorI19VertexBufferElementNS_9allocatorIS1_EEE16__destroy_vectorclB8ue170006Ev, symObjAddr: 0x1900, symBinAddr: 0x10000B96C, symSize: 0x90 }
  - { offsetInCU: 0x8892, offset: 0x274BE, size: 0x8, addend: 0x0, symName: __ZNSt3__16vectorI19VertexBufferElementNS_9allocatorIS1_EEE7__clearB8ue170006Ev, symObjAddr: 0x1990, symBinAddr: 0x10000B9FC, symSize: 0x28 }
  - { offsetInCU: 0x88B7, offset: 0x274E3, size: 0x8, addend: 0x0, symName: __ZNKSt3__16vectorI19VertexBufferElementNS_9allocatorIS1_EEE17__annotate_deleteB8ue170006Ev, symObjAddr: 0x19B8, symBinAddr: 0x10000BA24, symSize: 0xD4 }
  - { offsetInCU: 0x88DD, offset: 0x27509, size: 0x8, addend: 0x0, symName: __ZNSt3__116allocator_traitsINS_9allocatorI19VertexBufferElementEEE10deallocateB8ue170006ERS3_PS2_m, symObjAddr: 0x1A8C, symBinAddr: 0x10000BAF8, symSize: 0x34 }
  - { offsetInCU: 0x891E, offset: 0x2754A, size: 0x8, addend: 0x0, symName: __ZNSt3__16vectorI19VertexBufferElementNS_9allocatorIS1_EEE22__base_destruct_at_endB8ue170006EPS1_, symObjAddr: 0x1AC0, symBinAddr: 0x10000BB2C, symSize: 0x8C }
  - { offsetInCU: 0x8962, offset: 0x2758E, size: 0x8, addend: 0x0, symName: __ZNSt3__116allocator_traitsINS_9allocatorI19VertexBufferElementEEE7destroyB8ue170006IS2_vvEEvRS3_PT_, symObjAddr: 0x1B4C, symBinAddr: 0x10000BBB8, symSize: 0x28 }
  - { offsetInCU: 0x899C, offset: 0x275C8, size: 0x8, addend: 0x0, symName: __ZNSt3__19allocatorI19VertexBufferElementE10deallocateB8ue170006EPS1_m, symObjAddr: 0x1BA8, symBinAddr: 0x10000BC14, symSize: 0x44 }
  - { offsetInCU: 0x89DE, offset: 0x2760A, size: 0x8, addend: 0x0, symName: __ZNSt3__16vectorI19VertexBufferElementNS_9allocatorIS1_EEED2B8ue170006Ev, symObjAddr: 0x1CF4, symBinAddr: 0x10000BC58, symSize: 0x40 }
  - { offsetInCU: 0x298C, offset: 0x2A009, size: 0x8, addend: 0x0, symName: __ZN12VertexBufferC2EPKvj, symObjAddr: 0x0, symBinAddr: 0x10000BC98, symSize: 0x134 }
  - { offsetInCU: 0x29D2, offset: 0x2A04F, size: 0x8, addend: 0x0, symName: __ZN12VertexBufferC1EPKvj, symObjAddr: 0x134, symBinAddr: 0x10000BDCC, symSize: 0x3C }
  - { offsetInCU: 0x2A18, offset: 0x2A095, size: 0x8, addend: 0x0, symName: __ZN12VertexBufferD2Ev, symObjAddr: 0x170, symBinAddr: 0x10000BE08, symSize: 0x9C }
  - { offsetInCU: 0x2A42, offset: 0x2A0BF, size: 0x8, addend: 0x0, symName: __ZN12VertexBufferD1Ev, symObjAddr: 0x218, symBinAddr: 0x10000BEA4, symSize: 0x2C }
  - { offsetInCU: 0x2A6C, offset: 0x2A0E9, size: 0x8, addend: 0x0, symName: __ZNK12VertexBuffer4BindEv, symObjAddr: 0x244, symBinAddr: 0x10000BED0, symSize: 0x78 }
  - { offsetInCU: 0x2A92, offset: 0x2A10F, size: 0x8, addend: 0x0, symName: __ZNK12VertexBuffer6UnbindEv, symObjAddr: 0x2BC, symBinAddr: 0x10000BF48, symSize: 0x6C }
  - { offsetInCU: 0x3AEB, offset: 0x2DC2A, size: 0x8, addend: 0x0, symName: __ZNSt3__112construct_atB8ue170006I19VertexBufferElementJS1_EPS1_EEPT_S4_DpOT0_, symObjAddr: 0xE54, symBinAddr: 0x10000CBA8, symSize: 0x34 }
  - { offsetInCU: 0x3B5E, offset: 0x2DC9D, size: 0x8, addend: 0x0, symName: __ZNSt3__142__uninitialized_allocator_move_if_noexceptB8ue170006INS_9allocatorI19VertexBufferElementEENS_16reverse_iteratorIPS2_EES6_S2_vEET1_RT_T0_SA_S7_, symObjAddr: 0x19DC, symBinAddr: 0x10000D048, symSize: 0x78 }
  - { offsetInCU: 0x3BDC, offset: 0x2DD1B, size: 0x8, addend: 0x0, symName: __ZNSt3__14swapB8ue170006IP19VertexBufferElementEENS_9enable_ifIXaasr21is_move_constructibleIT_EE5valuesr18is_move_assignableIS4_EE5valueEvE4typeERS4_S7_, symObjAddr: 0x1AA0, symBinAddr: 0x10000D10C, symSize: 0x3C }
  - { offsetInCU: 0x3C2F, offset: 0x2DD6E, size: 0x8, addend: 0x0, symName: __ZNSt3__14moveB8ue170006INS_16reverse_iteratorIP19VertexBufferElementEES4_EET0_T_S6_S5_, symObjAddr: 0x1BEC, symBinAddr: 0x10000D148, symSize: 0x78 }
  - { offsetInCU: 0x3C8A, offset: 0x2DDC9, size: 0x8, addend: 0x0, symName: __ZNSt3__16__moveB8ue170006INS_17_ClassicAlgPolicyENS_16reverse_iteratorIP19VertexBufferElementEES5_S5_EENS_4pairIT0_T2_EES7_T1_S8_, symObjAddr: 0x1C64, symBinAddr: 0x10000D1C0, symSize: 0x64 }
  - { offsetInCU: 0x3CF7, offset: 0x2DE36, size: 0x8, addend: 0x0, symName: __ZNSt3__123__dispatch_copy_or_moveB8ue170006INS_17_ClassicAlgPolicyENS_11__move_loopIS1_EENS_14__move_trivialENS_16reverse_iteratorIP19VertexBufferElementEES8_S8_EENS_4pairIT2_T4_EESA_T3_SB_, symObjAddr: 0x1CC8, symBinAddr: 0x10000D224, symSize: 0x64 }
  - { offsetInCU: 0x3D76, offset: 0x2DEB5, size: 0x8, addend: 0x0, symName: __ZNSt3__121__unwrap_and_dispatchB8ue170006INS_10__overloadINS_11__move_loopINS_17_ClassicAlgPolicyEEENS_14__move_trivialEEENS_16reverse_iteratorIP19VertexBufferElementEESA_SA_Li0EEENS_4pairIT0_T2_EESC_T1_SD_, symObjAddr: 0x1D2C, symBinAddr: 0x10000D288, symSize: 0x12C }
  - { offsetInCU: 0x3E09, offset: 0x2DF48, size: 0x8, addend: 0x0, symName: __ZNSt3__114__unwrap_rangeB8ue170006INS_16reverse_iteratorIP19VertexBufferElementEES4_EEDaT_T0_, symObjAddr: 0x1E58, symBinAddr: 0x10000D3B4, symSize: 0x4C }
  - { offsetInCU: 0x3F7C, offset: 0x2E0BB, size: 0x8, addend: 0x0, symName: __ZNSt3__113__unwrap_iterB8ue170006INS_16reverse_iteratorIP19VertexBufferElementEENS_18__unwrap_iter_implIS4_Lb0EEELi0EEEDTclsrT0_8__unwrapclsr3stdE7declvalIT_EEEES8_, symObjAddr: 0x1F4C, symBinAddr: 0x10000D4A8, symSize: 0x44 }
  - { offsetInCU: 0x3FC1, offset: 0x2E100, size: 0x8, addend: 0x0, symName: __ZNSt3__19make_pairB8ue170006INS_16reverse_iteratorIP19VertexBufferElementEES4_EENS_4pairINS_18__unwrap_ref_decayIT_E4typeENS6_IT0_E4typeEEEOS7_OSA_, symObjAddr: 0x1F90, symBinAddr: 0x10000D4EC, symSize: 0x38 }
  - { offsetInCU: 0x4010, offset: 0x2E14F, size: 0x8, addend: 0x0, symName: __ZNSt3__114__rewrap_rangeB8ue170006INS_16reverse_iteratorIP19VertexBufferElementEES4_S4_EET0_S5_T1_, symObjAddr: 0x1FC8, symBinAddr: 0x10000D524, symSize: 0x5C }
  - { offsetInCU: 0x4066, offset: 0x2E1A5, size: 0x8, addend: 0x0, symName: __ZNSt3__113__rewrap_iterB8ue170006INS_16reverse_iteratorIP19VertexBufferElementEES4_NS_18__unwrap_iter_implIS4_Lb0EEEEET_S7_T0_, symObjAddr: 0x2024, symBinAddr: 0x10000D580, symSize: 0x74 }
  - { offsetInCU: 0x410C, offset: 0x2E24B, size: 0x8, addend: 0x0, symName: __ZNSt3__1neB8ue170006IP19VertexBufferElementS2_EEbRKNS_16reverse_iteratorIT_EERKNS3_IT0_EE, symObjAddr: 0x218C, symBinAddr: 0x10000D6E8, symSize: 0x48 }
  - { offsetInCU: 0x54FC, offset: 0x2F63B, size: 0x8, addend: 0x0, symName: __ZNSt3__16vectorI19VertexBufferElementNS_9allocatorIS1_EEE26__swap_out_circular_bufferERNS_14__split_bufferIS1_RS3_EE, symObjAddr: 0x1000, symBinAddr: 0x10000CCD4, symSize: 0x110 }
  - { offsetInCU: 0x732B, offset: 0x3146A, size: 0x8, addend: 0x0, symName: _main, symObjAddr: 0x0, symBinAddr: 0x10000BFB4, symSize: 0x76C }
  - { offsetInCU: 0x74CB, offset: 0x3160A, size: 0x8, addend: 0x0, symName: __ZN18VertexBufferLayoutC1Ev, symObjAddr: 0x7B4, symBinAddr: 0x10000C720, symSize: 0x2C }
  - { offsetInCU: 0x74F4, offset: 0x31633, size: 0x8, addend: 0x0, symName: __ZN18VertexBufferLayout4PushIfEEvj, symObjAddr: 0x7E0, symBinAddr: 0x10000C74C, symSize: 0x68 }
  - { offsetInCU: 0x7535, offset: 0x31674, size: 0x8, addend: 0x0, symName: __ZNSt3__112basic_stringIcNS_11char_traitsIcEENS_9allocatorIcEEEC1B8ue170006ILi0EEEPKc, symObjAddr: 0x848, symBinAddr: 0x10000C7B4, symSize: 0x34 }
  - { offsetInCU: 0x7573, offset: 0x316B2, size: 0x8, addend: 0x0, symName: __ZN18VertexBufferLayoutD1Ev, symObjAddr: 0x87C, symBinAddr: 0x10000C7E8, symSize: 0x2C }
  - { offsetInCU: 0x759D, offset: 0x316DC, size: 0x8, addend: 0x0, symName: __ZN18VertexBufferLayoutC2Ev, symObjAddr: 0x8A8, symBinAddr: 0x10000C814, symSize: 0x30 }
  - { offsetInCU: 0x75C6, offset: 0x31705, size: 0x8, addend: 0x0, symName: __ZNSt3__16vectorI19VertexBufferElementNS_9allocatorIS1_EEEC1B8ue170006Ev, symObjAddr: 0x8D8, symBinAddr: 0x10000C844, symSize: 0x2C }
  - { offsetInCU: 0x75EF, offset: 0x3172E, size: 0x8, addend: 0x0, symName: __ZNSt3__16vectorI19VertexBufferElementNS_9allocatorIS1_EEEC2B8ue170006Ev, symObjAddr: 0x904, symBinAddr: 0x10000C870, symSize: 0x4C }
  - { offsetInCU: 0x7624, offset: 0x31763, size: 0x8, addend: 0x0, symName: __ZNSt3__117__compressed_pairIP19VertexBufferElementNS_9allocatorIS1_EEEC1B8ue170006IDnNS_18__default_init_tagEEEOT_OT0_, symObjAddr: 0x950, symBinAddr: 0x10000C8BC, symSize: 0x3C }
  - { offsetInCU: 0x767B, offset: 0x317BA, size: 0x8, addend: 0x0, symName: __ZNSt3__117__compressed_pairIP19VertexBufferElementNS_9allocatorIS1_EEEC2B8ue170006IDnNS_18__default_init_tagEEEOT_OT0_, symObjAddr: 0x998, symBinAddr: 0x10000C8F8, symSize: 0x40 }
  - { offsetInCU: 0x76D2, offset: 0x31811, size: 0x8, addend: 0x0, symName: __ZNSt3__122__compressed_pair_elemINS_9allocatorI19VertexBufferElementEELi1ELb1EEC2B8ue170006ENS_18__default_init_tagE, symObjAddr: 0x9F4, symBinAddr: 0x10000C938, symSize: 0x2C }
  - { offsetInCU: 0x7706, offset: 0x31845, size: 0x8, addend: 0x0, symName: __ZNSt3__19allocatorI19VertexBufferElementEC2B8ue170006Ev, symObjAddr: 0xA20, symBinAddr: 0x10000C964, symSize: 0x2C }
  - { offsetInCU: 0x772F, offset: 0x3186E, size: 0x8, addend: 0x0, symName: __ZNSt3__116__non_trivial_ifILb1ENS_9allocatorI19VertexBufferElementEEEC2B8ue170006Ev, symObjAddr: 0xA4C, symBinAddr: 0x10000C990, symSize: 0x14 }
  - { offsetInCU: 0x7758, offset: 0x31897, size: 0x8, addend: 0x0, symName: __ZNSt3__16vectorI19VertexBufferElementNS_9allocatorIS1_EEE9push_backB8ue170006EOS1_, symObjAddr: 0xA60, symBinAddr: 0x10000C9A4, symSize: 0x6C }
  - { offsetInCU: 0x7794, offset: 0x318D3, size: 0x8, addend: 0x0, symName: __ZNSt3__16vectorI19VertexBufferElementNS_9allocatorIS1_EEE22__construct_one_at_endB8ue170006IJS1_EEEvDpOT_, symObjAddr: 0xB94, symBinAddr: 0x10000CA10, symSize: 0x90 }
  - { offsetInCU: 0x77E2, offset: 0x31921, size: 0x8, addend: 0x0, symName: __ZNSt3__16vectorI19VertexBufferElementNS_9allocatorIS1_EEE21__push_back_slow_pathIS1_EEvOT_, symObjAddr: 0xC24, symBinAddr: 0x10000CAA0, symSize: 0xD8 }
  - { offsetInCU: 0x785A, offset: 0x31999, size: 0x8, addend: 0x0, symName: __ZNSt3__116allocator_traitsINS_9allocatorI19VertexBufferElementEEE9constructB8ue170006IS2_JS2_EvvEEvRS3_PT_DpOT0_, symObjAddr: 0xD70, symBinAddr: 0x10000CB78, symSize: 0x30 }
  - { offsetInCU: 0x78AF, offset: 0x319EE, size: 0x8, addend: 0x0, symName: __ZNKSt3__16vectorI19VertexBufferElementNS_9allocatorIS1_EEE11__recommendB8ue170006Em, symObjAddr: 0xEE0, symBinAddr: 0x10000CBDC, symSize: 0xB4 }
  - { offsetInCU: 0x7903, offset: 0x31A42, size: 0x8, addend: 0x0, symName: __ZNSt3__114__split_bufferI19VertexBufferElementRNS_9allocatorIS1_EEEC1EmmS4_, symObjAddr: 0xFBC, symBinAddr: 0x10000CC90, symSize: 0x44 }
  - { offsetInCU: 0x7958, offset: 0x31A97, size: 0x8, addend: 0x0, symName: __ZNSt3__114__split_bufferI19VertexBufferElementRNS_9allocatorIS1_EEED1Ev, symObjAddr: 0x1110, symBinAddr: 0x10000CDE4, symSize: 0x2C }
  - { offsetInCU: 0x798E, offset: 0x31ACD, size: 0x8, addend: 0x0, symName: __ZNSt3__114__split_bufferI19VertexBufferElementRNS_9allocatorIS1_EEEC2EmmS4_, symObjAddr: 0x1530, symBinAddr: 0x10000CE10, symSize: 0xE0 }
  - { offsetInCU: 0x7A01, offset: 0x31B40, size: 0x8, addend: 0x0, symName: __ZNSt3__117__compressed_pairIP19VertexBufferElementRNS_9allocatorIS1_EEEC1B8ue170006IDnS5_EEOT_OT0_, symObjAddr: 0x1610, symBinAddr: 0x10000CEF0, symSize: 0x3C }
  - { offsetInCU: 0x7A58, offset: 0x31B97, size: 0x8, addend: 0x0, symName: __ZNSt3__114__split_bufferI19VertexBufferElementRNS_9allocatorIS1_EEE7__allocB8ue170006Ev, symObjAddr: 0x168C, symBinAddr: 0x10000CF2C, symSize: 0x28 }
  - { offsetInCU: 0x7A7D, offset: 0x31BBC, size: 0x8, addend: 0x0, symName: __ZNSt3__114__split_bufferI19VertexBufferElementRNS_9allocatorIS1_EEE9__end_capB8ue170006Ev, symObjAddr: 0x16B4, symBinAddr: 0x10000CF54, symSize: 0x28 }
  - { offsetInCU: 0x7AA2, offset: 0x31BE1, size: 0x8, addend: 0x0, symName: __ZNSt3__117__compressed_pairIP19VertexBufferElementRNS_9allocatorIS1_EEEC2B8ue170006IDnS5_EEOT_OT0_, symObjAddr: 0x16DC, symBinAddr: 0x10000CF7C, symSize: 0x48 }
  - { offsetInCU: 0x7AF9, offset: 0x31C38, size: 0x8, addend: 0x0, symName: __ZNSt3__122__compressed_pair_elemIRNS_9allocatorI19VertexBufferElementEELi1ELb0EEC2B8ue170006IS4_vEEOT_, symObjAddr: 0x1724, symBinAddr: 0x10000CFC4, symSize: 0x20 }
  - { offsetInCU: 0x7B3A, offset: 0x31C79, size: 0x8, addend: 0x0, symName: __ZNSt3__117__compressed_pairIP19VertexBufferElementRNS_9allocatorIS1_EEE6secondB8ue170006Ev, symObjAddr: 0x18A4, symBinAddr: 0x10000CFE4, symSize: 0x28 }
  - { offsetInCU: 0x7B5F, offset: 0x31C9E, size: 0x8, addend: 0x0, symName: __ZNSt3__122__compressed_pair_elemIRNS_9allocatorI19VertexBufferElementEELi1ELb0EE5__getB8ue170006Ev, symObjAddr: 0x18CC, symBinAddr: 0x10000D00C, symSize: 0x18 }
  - { offsetInCU: 0x7B84, offset: 0x31CC3, size: 0x8, addend: 0x0, symName: __ZNSt3__117__compressed_pairIP19VertexBufferElementRNS_9allocatorIS1_EEE5firstB8ue170006Ev, symObjAddr: 0x18E4, symBinAddr: 0x10000D024, symSize: 0x24 }
  - { offsetInCU: 0x7BA9, offset: 0x31CE8, size: 0x8, addend: 0x0, symName: __ZNSt3__116reverse_iteratorIP19VertexBufferElementEC1B8ue170006ES2_, symObjAddr: 0x1A54, symBinAddr: 0x10000D0C0, symSize: 0x34 }
  - { offsetInCU: 0x7BE0, offset: 0x31D1F, size: 0x8, addend: 0x0, symName: __ZNKSt3__116reverse_iteratorIP19VertexBufferElementE4baseB8ue170006Ev, symObjAddr: 0x1A88, symBinAddr: 0x10000D0F4, symSize: 0x18 }
  - { offsetInCU: 0x7C2B, offset: 0x31D6A, size: 0x8, addend: 0x0, symName: __ZNKSt3__111__move_loopINS_17_ClassicAlgPolicyEEclB8ue170006INS_16reverse_iteratorIP19VertexBufferElementEES7_S7_EENS_4pairIT_T1_EES9_T0_SA_, symObjAddr: 0x1EA4, symBinAddr: 0x10000D400, symSize: 0xA8 }
  - { offsetInCU: 0x7C95, offset: 0x31DD4, size: 0x8, addend: 0x0, symName: __ZNSt3__119__unwrap_range_implINS_16reverse_iteratorIP19VertexBufferElementEES4_E8__unwrapB8ue170006ES4_S4_, symObjAddr: 0x2098, symBinAddr: 0x10000D5F4, symSize: 0x84 }
  - { offsetInCU: 0x7CCC, offset: 0x31E0B, size: 0x8, addend: 0x0, symName: __ZNSt3__14pairINS_16reverse_iteratorIP19VertexBufferElementEES4_EC1B8ue170006IS4_S4_LPv0EEEOT_OT0_, symObjAddr: 0x211C, symBinAddr: 0x10000D678, symSize: 0x3C }
  - { offsetInCU: 0x7D29, offset: 0x31E68, size: 0x8, addend: 0x0, symName: __ZNSt3__14pairINS_16reverse_iteratorIP19VertexBufferElementEES4_EC2B8ue170006IS4_S4_LPv0EEEOT_OT0_, symObjAddr: 0x2158, symBinAddr: 0x10000D6B4, symSize: 0x34 }
  - { offsetInCU: 0x7D86, offset: 0x31EC5, size: 0x8, addend: 0x0, symName: __ZNSt3__18_IterOpsINS_17_ClassicAlgPolicyEE11__iter_moveB8ue170006IRNS_16reverse_iteratorIP19VertexBufferElementEEEENS_9enable_ifIXsr12is_referenceIDTdeclsr3stdE7declvalIRT_EEEEE5valueEDTclsr3stdE4movedeclsr3stdE7declvalISB_EEEEE4typeEOSA_, symObjAddr: 0x21D4, symBinAddr: 0x10000D730, symSize: 0x28 }
  - { offsetInCU: 0x7DB2, offset: 0x31EF1, size: 0x8, addend: 0x0, symName: __ZNKSt3__116reverse_iteratorIP19VertexBufferElementEdeB8ue170006Ev, symObjAddr: 0x21FC, symBinAddr: 0x10000D758, symSize: 0x28 }
  - { offsetInCU: 0x7DE6, offset: 0x31F25, size: 0x8, addend: 0x0, symName: __ZNSt3__116reverse_iteratorIP19VertexBufferElementEppB8ue170006Ev, symObjAddr: 0x2224, symBinAddr: 0x10000D780, symSize: 0x20 }
  - { offsetInCU: 0x7E0B, offset: 0x31F4A, size: 0x8, addend: 0x0, symName: __ZNSt3__18_IterOpsINS_17_ClassicAlgPolicyEE25__validate_iter_referenceB8ue170006IRNS_16reverse_iteratorIP19VertexBufferElementEEEEvv, symObjAddr: 0x2244, symBinAddr: 0x10000D7A0, symSize: 0x4 }
  - { offsetInCU: 0x7E29, offset: 0x31F68, size: 0x8, addend: 0x0, symName: __ZNSt3__118__unwrap_iter_implINS_16reverse_iteratorIP19VertexBufferElementEELb0EE8__unwrapB8ue170006ES4_, symObjAddr: 0x2248, symBinAddr: 0x10000D7A4, symSize: 0x24 }
  - { offsetInCU: 0x7E4C, offset: 0x31F8B, size: 0x8, addend: 0x0, symName: __ZNSt3__119__unwrap_range_implINS_16reverse_iteratorIP19VertexBufferElementEES4_E8__rewrapB8ue170006ES4_S4_, symObjAddr: 0x226C, symBinAddr: 0x10000D7C8, symSize: 0x5C }
  - { offsetInCU: 0x7E7D, offset: 0x31FBC, size: 0x8, addend: 0x0, symName: __ZNSt3__118__unwrap_iter_implINS_16reverse_iteratorIP19VertexBufferElementEELb0EE8__rewrapB8ue170006ES4_S4_, symObjAddr: 0x22C8, symBinAddr: 0x10000D824, symSize: 0x2C }
  - { offsetInCU: 0x7EAB, offset: 0x31FEA, size: 0x8, addend: 0x0, symName: __ZNSt3__116reverse_iteratorIP19VertexBufferElementEC2B8ue170006ES2_, symObjAddr: 0x22F4, symBinAddr: 0x10000D850, symSize: 0x28 }
  - { offsetInCU: 0x7EE2, offset: 0x32021, size: 0x8, addend: 0x0, symName: __ZNSt3__114__split_bufferI19VertexBufferElementRNS_9allocatorIS1_EEED2Ev, symObjAddr: 0x231C, symBinAddr: 0x10000D878, symSize: 0x8C }
  - { offsetInCU: 0x7F0D, offset: 0x3204C, size: 0x8, addend: 0x0, symName: __ZNSt3__114__split_bufferI19VertexBufferElementRNS_9allocatorIS1_EEE5clearB8ue170006Ev, symObjAddr: 0x23A8, symBinAddr: 0x10000D904, symSize: 0x28 }
  - { offsetInCU: 0x7F32, offset: 0x32071, size: 0x8, addend: 0x0, symName: __ZNKSt3__114__split_bufferI19VertexBufferElementRNS_9allocatorIS1_EEE8capacityB8ue170006Ev, symObjAddr: 0x2404, symBinAddr: 0x10000D92C, symSize: 0x40 }
  - { offsetInCU: 0x7F57, offset: 0x32096, size: 0x8, addend: 0x0, symName: __ZNSt3__114__split_bufferI19VertexBufferElementRNS_9allocatorIS1_EEE17__destruct_at_endB8ue170006EPS1_, symObjAddr: 0x2444, symBinAddr: 0x10000D96C, symSize: 0x2C }
  - { offsetInCU: 0x7F8A, offset: 0x320C9, size: 0x8, addend: 0x0, symName: __ZNSt3__114__split_bufferI19VertexBufferElementRNS_9allocatorIS1_EEE17__destruct_at_endB8ue170006EPS1_NS_17integral_constantIbLb0EEE, symObjAddr: 0x2470, symBinAddr: 0x10000D998, symSize: 0x80 }
  - { offsetInCU: 0x7FCA, offset: 0x32109, size: 0x8, addend: 0x0, symName: __ZNKSt3__114__split_bufferI19VertexBufferElementRNS_9allocatorIS1_EEE9__end_capB8ue170006Ev, symObjAddr: 0x2698, symBinAddr: 0x10000DA18, symSize: 0x28 }
  - { offsetInCU: 0x7FEF, offset: 0x3212E, size: 0x8, addend: 0x0, symName: __ZNKSt3__117__compressed_pairIP19VertexBufferElementRNS_9allocatorIS1_EEE5firstB8ue170006Ev, symObjAddr: 0x26C0, symBinAddr: 0x10000DA40, symSize: 0x24 }
  - { offsetInCU: 0x8014, offset: 0x32153, size: 0x8, addend: 0x0, symName: __ZNSt3__112basic_stringIcNS_11char_traitsIcEENS_9allocatorIcEEEC2B8ue170006ILi0EEEPKc, symObjAddr: 0x26E4, symBinAddr: 0x10000DA64, symSize: 0x58 }
  - { offsetInCU: 0x8052, offset: 0x32191, size: 0x8, addend: 0x0, symName: __ZN18VertexBufferLayoutD2Ev, symObjAddr: 0x288C, symBinAddr: 0x10000DABC, symSize: 0x2C }
  - { offsetInCU: 0x2987, offset: 0x34E35, size: 0x8, addend: 0x0, symName: __Z12GLClearErrorv, symObjAddr: 0x0, symBinAddr: 0x10000DAE8, symSize: 0x38 }
  - { offsetInCU: 0x29A1, offset: 0x34E4F, size: 0x8, addend: 0x0, symName: __Z9GLLogCallPKcS0_i, symObjAddr: 0x38, symBinAddr: 0x10000DB20, symSize: 0xE4 }
  - { offsetInCU: 0x26, offset: 0x34ED8, size: 0x8, addend: 0x0, symName: _gladLoadGL, symObjAddr: 0x0, symBinAddr: 0x10000DC04, symSize: 0x4C }
  - { offsetInCU: 0x40, offset: 0x34EF2, size: 0x8, addend: 0x0, symName: _GLVersion, symObjAddr: 0x18910, symBinAddr: 0x100018020, symSize: 0x0 }
  - { offsetInCU: 0x80, offset: 0x34F32, size: 0x8, addend: 0x0, symName: _GLAD_GL_VERSION_1_0, symObjAddr: 0x18918, symBinAddr: 0x100018028, symSize: 0x0 }
  - { offsetInCU: 0x97, offset: 0x34F49, size: 0x8, addend: 0x0, symName: _GLAD_GL_VERSION_1_1, symObjAddr: 0x1891C, symBinAddr: 0x10001802C, symSize: 0x0 }
  - { offsetInCU: 0xAE, offset: 0x34F60, size: 0x8, addend: 0x0, symName: _GLAD_GL_VERSION_1_2, symObjAddr: 0x18920, symBinAddr: 0x100018030, symSize: 0x0 }
  - { offsetInCU: 0xC5, offset: 0x34F77, size: 0x8, addend: 0x0, symName: _GLAD_GL_VERSION_1_3, symObjAddr: 0x18924, symBinAddr: 0x100018034, symSize: 0x0 }
  - { offsetInCU: 0xDC, offset: 0x34F8E, size: 0x8, addend: 0x0, symName: _GLAD_GL_VERSION_1_4, symObjAddr: 0x18928, symBinAddr: 0x100018038, symSize: 0x0 }
  - { offsetInCU: 0xF3, offset: 0x34FA5, size: 0x8, addend: 0x0, symName: _GLAD_GL_VERSION_1_5, symObjAddr: 0x1892C, symBinAddr: 0x10001803C, symSize: 0x0 }
  - { offsetInCU: 0x10A, offset: 0x34FBC, size: 0x8, addend: 0x0, symName: _GLAD_GL_VERSION_2_0, symObjAddr: 0x18930, symBinAddr: 0x100018040, symSize: 0x0 }
  - { offsetInCU: 0x121, offset: 0x34FD3, size: 0x8, addend: 0x0, symName: _GLAD_GL_VERSION_2_1, symObjAddr: 0x18934, symBinAddr: 0x100018044, symSize: 0x0 }
  - { offsetInCU: 0x138, offset: 0x34FEA, size: 0x8, addend: 0x0, symName: _GLAD_GL_VERSION_3_0, symObjAddr: 0x18938, symBinAddr: 0x100018048, symSize: 0x0 }
  - { offsetInCU: 0x14F, offset: 0x35001, size: 0x8, addend: 0x0, symName: _GLAD_GL_VERSION_3_1, symObjAddr: 0x1893C, symBinAddr: 0x10001804C, symSize: 0x0 }
  - { offsetInCU: 0x166, offset: 0x35018, size: 0x8, addend: 0x0, symName: _GLAD_GL_VERSION_3_2, symObjAddr: 0x18940, symBinAddr: 0x100018050, symSize: 0x0 }
  - { offsetInCU: 0x17D, offset: 0x3502F, size: 0x8, addend: 0x0, symName: _GLAD_GL_VERSION_3_3, symObjAddr: 0x18944, symBinAddr: 0x100018054, symSize: 0x0 }
  - { offsetInCU: 0x194, offset: 0x35046, size: 0x8, addend: 0x0, symName: _glad_glActiveTexture, symObjAddr: 0x18948, symBinAddr: 0x100018058, symSize: 0x0 }
  - { offsetInCU: 0x1CA, offset: 0x3507C, size: 0x8, addend: 0x0, symName: _glad_glAttachShader, symObjAddr: 0x18950, symBinAddr: 0x100018060, symSize: 0x0 }
  - { offsetInCU: 0x209, offset: 0x350BB, size: 0x8, addend: 0x0, symName: _glad_glBeginConditionalRender, symObjAddr: 0x18958, symBinAddr: 0x100018068, symSize: 0x0 }
  - { offsetInCU: 0x23D, offset: 0x350EF, size: 0x8, addend: 0x0, symName: _glad_glBeginQuery, symObjAddr: 0x18960, symBinAddr: 0x100018070, symSize: 0x0 }
  - { offsetInCU: 0x271, offset: 0x35123, size: 0x8, addend: 0x0, symName: _glad_glBeginTransformFeedback, symObjAddr: 0x18968, symBinAddr: 0x100018078, symSize: 0x0 }
  - { offsetInCU: 0x294, offset: 0x35146, size: 0x8, addend: 0x0, symName: _glad_glBindAttribLocation, symObjAddr: 0x18970, symBinAddr: 0x100018080, symSize: 0x0 }
  - { offsetInCU: 0x2E9, offset: 0x3519B, size: 0x8, addend: 0x0, symName: _glad_glBindBuffer, symObjAddr: 0x18978, symBinAddr: 0x100018088, symSize: 0x0 }
  - { offsetInCU: 0x30C, offset: 0x351BE, size: 0x8, addend: 0x0, symName: _glad_glBindBufferBase, symObjAddr: 0x18980, symBinAddr: 0x100018090, symSize: 0x0 }
  - { offsetInCU: 0x345, offset: 0x351F7, size: 0x8, addend: 0x0, symName: _glad_glBindBufferRange, symObjAddr: 0x18988, symBinAddr: 0x100018098, symSize: 0x0 }
  - { offsetInCU: 0x3BD, offset: 0x3526F, size: 0x8, addend: 0x0, symName: _glad_glBindFragDataLocation, symObjAddr: 0x18990, symBinAddr: 0x1000180A0, symSize: 0x0 }
  - { offsetInCU: 0x3E0, offset: 0x35292, size: 0x8, addend: 0x0, symName: _glad_glBindFragDataLocationIndexed, symObjAddr: 0x18998, symBinAddr: 0x1000180A8, symSize: 0x0 }
  - { offsetInCU: 0x41E, offset: 0x352D0, size: 0x8, addend: 0x0, symName: _glad_glBindFramebuffer, symObjAddr: 0x189A0, symBinAddr: 0x1000180B0, symSize: 0x0 }
  - { offsetInCU: 0x441, offset: 0x352F3, size: 0x8, addend: 0x0, symName: _glad_glBindRenderbuffer, symObjAddr: 0x189A8, symBinAddr: 0x1000180B8, symSize: 0x0 }
  - { offsetInCU: 0x464, offset: 0x35316, size: 0x8, addend: 0x0, symName: _glad_glBindSampler, symObjAddr: 0x189B0, symBinAddr: 0x1000180C0, symSize: 0x0 }
  - { offsetInCU: 0x487, offset: 0x35339, size: 0x8, addend: 0x0, symName: _glad_glBindTexture, symObjAddr: 0x189B8, symBinAddr: 0x1000180C8, symSize: 0x0 }
  - { offsetInCU: 0x4AA, offset: 0x3535C, size: 0x8, addend: 0x0, symName: _glad_glBindVertexArray, symObjAddr: 0x189C0, symBinAddr: 0x1000180D0, symSize: 0x0 }
  - { offsetInCU: 0x4D9, offset: 0x3538B, size: 0x8, addend: 0x0, symName: _glad_glBlendColor, symObjAddr: 0x189C8, symBinAddr: 0x1000180D8, symSize: 0x0 }
  - { offsetInCU: 0x535, offset: 0x353E7, size: 0x8, addend: 0x0, symName: _glad_glBlendEquation, symObjAddr: 0x189D0, symBinAddr: 0x1000180E0, symSize: 0x0 }
  - { offsetInCU: 0x558, offset: 0x3540A, size: 0x8, addend: 0x0, symName: _glad_glBlendEquationSeparate, symObjAddr: 0x189D8, symBinAddr: 0x1000180E8, symSize: 0x0 }
  - { offsetInCU: 0x58C, offset: 0x3543E, size: 0x8, addend: 0x0, symName: _glad_glBlendFunc, symObjAddr: 0x189E0, symBinAddr: 0x1000180F0, symSize: 0x0 }
  - { offsetInCU: 0x5AF, offset: 0x35461, size: 0x8, addend: 0x0, symName: _glad_glBlendFuncSeparate, symObjAddr: 0x189E8, symBinAddr: 0x1000180F8, symSize: 0x0 }
  - { offsetInCU: 0x5ED, offset: 0x3549F, size: 0x8, addend: 0x0, symName: _glad_glBlitFramebuffer, symObjAddr: 0x189F0, symBinAddr: 0x100018100, symSize: 0x0 }
  - { offsetInCU: 0x654, offset: 0x35506, size: 0x8, addend: 0x0, symName: _glad_glBufferData, symObjAddr: 0x189F8, symBinAddr: 0x100018108, symSize: 0x0 }
  - { offsetInCU: 0x698, offset: 0x3554A, size: 0x8, addend: 0x0, symName: _glad_glBufferSubData, symObjAddr: 0x18A00, symBinAddr: 0x100018110, symSize: 0x0 }
  - { offsetInCU: 0x6D6, offset: 0x35588, size: 0x8, addend: 0x0, symName: _glad_glCheckFramebufferStatus, symObjAddr: 0x18A08, symBinAddr: 0x100018118, symSize: 0x0 }
  - { offsetInCU: 0x709, offset: 0x355BB, size: 0x8, addend: 0x0, symName: _glad_glClampColor, symObjAddr: 0x18A10, symBinAddr: 0x100018120, symSize: 0x0 }
  - { offsetInCU: 0x72C, offset: 0x355DE, size: 0x8, addend: 0x0, symName: _glad_glClear, symObjAddr: 0x18A18, symBinAddr: 0x100018128, symSize: 0x0 }
  - { offsetInCU: 0x75B, offset: 0x3560D, size: 0x8, addend: 0x0, symName: _glad_glClearBufferfi, symObjAddr: 0x18A20, symBinAddr: 0x100018130, symSize: 0x0 }
  - { offsetInCU: 0x799, offset: 0x3564B, size: 0x8, addend: 0x0, symName: _glad_glClearBufferfv, symObjAddr: 0x18A28, symBinAddr: 0x100018138, symSize: 0x0 }
  - { offsetInCU: 0x7DC, offset: 0x3568E, size: 0x8, addend: 0x0, symName: _glad_glClearBufferiv, symObjAddr: 0x18A30, symBinAddr: 0x100018140, symSize: 0x0 }
  - { offsetInCU: 0x81F, offset: 0x356D1, size: 0x8, addend: 0x0, symName: _glad_glClearBufferuiv, symObjAddr: 0x18A38, symBinAddr: 0x100018148, symSize: 0x0 }
  - { offsetInCU: 0x862, offset: 0x35714, size: 0x8, addend: 0x0, symName: _glad_glClearColor, symObjAddr: 0x18A40, symBinAddr: 0x100018150, symSize: 0x0 }
  - { offsetInCU: 0x885, offset: 0x35737, size: 0x8, addend: 0x0, symName: _glad_glClearDepth, symObjAddr: 0x18A48, symBinAddr: 0x100018158, symSize: 0x0 }
  - { offsetInCU: 0x8C6, offset: 0x35778, size: 0x8, addend: 0x0, symName: _glad_glClearStencil, symObjAddr: 0x18A50, symBinAddr: 0x100018160, symSize: 0x0 }
  - { offsetInCU: 0x8F5, offset: 0x357A7, size: 0x8, addend: 0x0, symName: _glad_glClientWaitSync, symObjAddr: 0x18A58, symBinAddr: 0x100018168, symSize: 0x0 }
  - { offsetInCU: 0x964, offset: 0x35816, size: 0x8, addend: 0x0, symName: _glad_glColorMask, symObjAddr: 0x18A60, symBinAddr: 0x100018170, symSize: 0x0 }
  - { offsetInCU: 0x9B4, offset: 0x35866, size: 0x8, addend: 0x0, symName: _glad_glColorMaski, symObjAddr: 0x18A68, symBinAddr: 0x100018178, symSize: 0x0 }
  - { offsetInCU: 0x9F7, offset: 0x358A9, size: 0x8, addend: 0x0, symName: _glad_glColorP3ui, symObjAddr: 0x18A70, symBinAddr: 0x100018180, symSize: 0x0 }
  - { offsetInCU: 0xA1A, offset: 0x358CC, size: 0x8, addend: 0x0, symName: _glad_glColorP3uiv, symObjAddr: 0x18A78, symBinAddr: 0x100018188, symSize: 0x0 }
  - { offsetInCU: 0xA4E, offset: 0x35900, size: 0x8, addend: 0x0, symName: _glad_glColorP4ui, symObjAddr: 0x18A80, symBinAddr: 0x100018190, symSize: 0x0 }
  - { offsetInCU: 0xA71, offset: 0x35923, size: 0x8, addend: 0x0, symName: _glad_glColorP4uiv, symObjAddr: 0x18A88, symBinAddr: 0x100018198, symSize: 0x0 }
  - { offsetInCU: 0xA94, offset: 0x35946, size: 0x8, addend: 0x0, symName: _glad_glCompileShader, symObjAddr: 0x18A90, symBinAddr: 0x1000181A0, symSize: 0x0 }
  - { offsetInCU: 0xAB7, offset: 0x35969, size: 0x8, addend: 0x0, symName: _glad_glCompressedTexImage1D, symObjAddr: 0x18A98, symBinAddr: 0x1000181A8, symSize: 0x0 }
  - { offsetInCU: 0xB0F, offset: 0x359C1, size: 0x8, addend: 0x0, symName: _glad_glCompressedTexImage2D, symObjAddr: 0x18AA0, symBinAddr: 0x1000181B0, symSize: 0x0 }
  - { offsetInCU: 0xB61, offset: 0x35A13, size: 0x8, addend: 0x0, symName: _glad_glCompressedTexImage3D, symObjAddr: 0x18AA8, symBinAddr: 0x1000181B8, symSize: 0x0 }
  - { offsetInCU: 0xBB8, offset: 0x35A6A, size: 0x8, addend: 0x0, symName: _glad_glCompressedTexSubImage1D, symObjAddr: 0x18AB0, symBinAddr: 0x1000181C0, symSize: 0x0 }
  - { offsetInCU: 0xC05, offset: 0x35AB7, size: 0x8, addend: 0x0, symName: _glad_glCompressedTexSubImage2D, symObjAddr: 0x18AB8, symBinAddr: 0x1000181C8, symSize: 0x0 }
  - { offsetInCU: 0xC5C, offset: 0x35B0E, size: 0x8, addend: 0x0, symName: _glad_glCompressedTexSubImage3D, symObjAddr: 0x18AC0, symBinAddr: 0x1000181D0, symSize: 0x0 }
  - { offsetInCU: 0xCBD, offset: 0x35B6F, size: 0x8, addend: 0x0, symName: _glad_glCopyBufferSubData, symObjAddr: 0x18AC8, symBinAddr: 0x1000181D8, symSize: 0x0 }
  - { offsetInCU: 0xD00, offset: 0x35BB2, size: 0x8, addend: 0x0, symName: _glad_glCopyTexImage1D, symObjAddr: 0x18AD0, symBinAddr: 0x1000181E0, symSize: 0x0 }
  - { offsetInCU: 0xD4D, offset: 0x35BFF, size: 0x8, addend: 0x0, symName: _glad_glCopyTexImage2D, symObjAddr: 0x18AD8, symBinAddr: 0x1000181E8, symSize: 0x0 }
  - { offsetInCU: 0xD9F, offset: 0x35C51, size: 0x8, addend: 0x0, symName: _glad_glCopyTexSubImage1D, symObjAddr: 0x18AE0, symBinAddr: 0x1000181F0, symSize: 0x0 }
  - { offsetInCU: 0xDE7, offset: 0x35C99, size: 0x8, addend: 0x0, symName: _glad_glCopyTexSubImage2D, symObjAddr: 0x18AE8, symBinAddr: 0x1000181F8, symSize: 0x0 }
  - { offsetInCU: 0xE39, offset: 0x35CEB, size: 0x8, addend: 0x0, symName: _glad_glCopyTexSubImage3D, symObjAddr: 0x18AF0, symBinAddr: 0x100018200, symSize: 0x0 }
  - { offsetInCU: 0xE90, offset: 0x35D42, size: 0x8, addend: 0x0, symName: _glad_glCreateProgram, symObjAddr: 0x18AF8, symBinAddr: 0x100018208, symSize: 0x0 }
  - { offsetInCU: 0xEBE, offset: 0x35D70, size: 0x8, addend: 0x0, symName: _glad_glCreateShader, symObjAddr: 0x18B00, symBinAddr: 0x100018210, symSize: 0x0 }
  - { offsetInCU: 0xEF1, offset: 0x35DA3, size: 0x8, addend: 0x0, symName: _glad_glCullFace, symObjAddr: 0x18B08, symBinAddr: 0x100018218, symSize: 0x0 }
  - { offsetInCU: 0xF14, offset: 0x35DC6, size: 0x8, addend: 0x0, symName: _glad_glDeleteBuffers, symObjAddr: 0x18B10, symBinAddr: 0x100018220, symSize: 0x0 }
  - { offsetInCU: 0xF48, offset: 0x35DFA, size: 0x8, addend: 0x0, symName: _glad_glDeleteFramebuffers, symObjAddr: 0x18B18, symBinAddr: 0x100018228, symSize: 0x0 }
  - { offsetInCU: 0xF6B, offset: 0x35E1D, size: 0x8, addend: 0x0, symName: _glad_glDeleteProgram, symObjAddr: 0x18B20, symBinAddr: 0x100018230, symSize: 0x0 }
  - { offsetInCU: 0xF8E, offset: 0x35E40, size: 0x8, addend: 0x0, symName: _glad_glDeleteQueries, symObjAddr: 0x18B28, symBinAddr: 0x100018238, symSize: 0x0 }
  - { offsetInCU: 0xFB1, offset: 0x35E63, size: 0x8, addend: 0x0, symName: _glad_glDeleteRenderbuffers, symObjAddr: 0x18B30, symBinAddr: 0x100018240, symSize: 0x0 }
  - { offsetInCU: 0xFD4, offset: 0x35E86, size: 0x8, addend: 0x0, symName: _glad_glDeleteSamplers, symObjAddr: 0x18B38, symBinAddr: 0x100018248, symSize: 0x0 }
  - { offsetInCU: 0xFF7, offset: 0x35EA9, size: 0x8, addend: 0x0, symName: _glad_glDeleteShader, symObjAddr: 0x18B40, symBinAddr: 0x100018250, symSize: 0x0 }
  - { offsetInCU: 0x101A, offset: 0x35ECC, size: 0x8, addend: 0x0, symName: _glad_glDeleteSync, symObjAddr: 0x18B48, symBinAddr: 0x100018258, symSize: 0x0 }
  - { offsetInCU: 0x1049, offset: 0x35EFB, size: 0x8, addend: 0x0, symName: _glad_glDeleteTextures, symObjAddr: 0x18B50, symBinAddr: 0x100018260, symSize: 0x0 }
  - { offsetInCU: 0x106C, offset: 0x35F1E, size: 0x8, addend: 0x0, symName: _glad_glDeleteVertexArrays, symObjAddr: 0x18B58, symBinAddr: 0x100018268, symSize: 0x0 }
  - { offsetInCU: 0x108F, offset: 0x35F41, size: 0x8, addend: 0x0, symName: _glad_glDepthFunc, symObjAddr: 0x18B60, symBinAddr: 0x100018270, symSize: 0x0 }
  - { offsetInCU: 0x10B2, offset: 0x35F64, size: 0x8, addend: 0x0, symName: _glad_glDepthMask, symObjAddr: 0x18B68, symBinAddr: 0x100018278, symSize: 0x0 }
  - { offsetInCU: 0x10E1, offset: 0x35F93, size: 0x8, addend: 0x0, symName: _glad_glDepthRange, symObjAddr: 0x18B70, symBinAddr: 0x100018280, symSize: 0x0 }
  - { offsetInCU: 0x1115, offset: 0x35FC7, size: 0x8, addend: 0x0, symName: _glad_glDetachShader, symObjAddr: 0x18B78, symBinAddr: 0x100018288, symSize: 0x0 }
  - { offsetInCU: 0x1138, offset: 0x35FEA, size: 0x8, addend: 0x0, symName: _glad_glDisable, symObjAddr: 0x18B80, symBinAddr: 0x100018290, symSize: 0x0 }
  - { offsetInCU: 0x115B, offset: 0x3600D, size: 0x8, addend: 0x0, symName: _glad_glDisableVertexAttribArray, symObjAddr: 0x18B88, symBinAddr: 0x100018298, symSize: 0x0 }
  - { offsetInCU: 0x117E, offset: 0x36030, size: 0x8, addend: 0x0, symName: _glad_glDisablei, symObjAddr: 0x18B90, symBinAddr: 0x1000182A0, symSize: 0x0 }
  - { offsetInCU: 0x11A1, offset: 0x36053, size: 0x8, addend: 0x0, symName: _glad_glDrawArrays, symObjAddr: 0x18B98, symBinAddr: 0x1000182A8, symSize: 0x0 }
  - { offsetInCU: 0x11DA, offset: 0x3608C, size: 0x8, addend: 0x0, symName: _glad_glDrawArraysInstanced, symObjAddr: 0x18BA0, symBinAddr: 0x1000182B0, symSize: 0x0 }
  - { offsetInCU: 0x1218, offset: 0x360CA, size: 0x8, addend: 0x0, symName: _glad_glDrawBuffer, symObjAddr: 0x18BA8, symBinAddr: 0x1000182B8, symSize: 0x0 }
  - { offsetInCU: 0x123B, offset: 0x360ED, size: 0x8, addend: 0x0, symName: _glad_glDrawBuffers, symObjAddr: 0x18BB0, symBinAddr: 0x1000182C0, symSize: 0x0 }
  - { offsetInCU: 0x1279, offset: 0x3612B, size: 0x8, addend: 0x0, symName: _glad_glDrawElements, symObjAddr: 0x18BB8, symBinAddr: 0x1000182C8, symSize: 0x0 }
  - { offsetInCU: 0x12B7, offset: 0x36169, size: 0x8, addend: 0x0, symName: _glad_glDrawElementsBaseVertex, symObjAddr: 0x18BC0, symBinAddr: 0x1000182D0, symSize: 0x0 }
  - { offsetInCU: 0x12FA, offset: 0x361AC, size: 0x8, addend: 0x0, symName: _glad_glDrawElementsInstanced, symObjAddr: 0x18BC8, symBinAddr: 0x1000182D8, symSize: 0x0 }
  - { offsetInCU: 0x133D, offset: 0x361EF, size: 0x8, addend: 0x0, symName: _glad_glDrawElementsInstancedBaseVertex, symObjAddr: 0x18BD0, symBinAddr: 0x1000182E0, symSize: 0x0 }
  - { offsetInCU: 0x1385, offset: 0x36237, size: 0x8, addend: 0x0, symName: _glad_glDrawRangeElements, symObjAddr: 0x18BD8, symBinAddr: 0x1000182E8, symSize: 0x0 }
  - { offsetInCU: 0x13CD, offset: 0x3627F, size: 0x8, addend: 0x0, symName: _glad_glDrawRangeElementsBaseVertex, symObjAddr: 0x18BE0, symBinAddr: 0x1000182F0, symSize: 0x0 }
  - { offsetInCU: 0x141A, offset: 0x362CC, size: 0x8, addend: 0x0, symName: _glad_glEnable, symObjAddr: 0x18BE8, symBinAddr: 0x1000182F8, symSize: 0x0 }
  - { offsetInCU: 0x143D, offset: 0x362EF, size: 0x8, addend: 0x0, symName: _glad_glEnableVertexAttribArray, symObjAddr: 0x18BF0, symBinAddr: 0x100018300, symSize: 0x0 }
  - { offsetInCU: 0x1460, offset: 0x36312, size: 0x8, addend: 0x0, symName: _glad_glEnablei, symObjAddr: 0x18BF8, symBinAddr: 0x100018308, symSize: 0x0 }
  - { offsetInCU: 0x1483, offset: 0x36335, size: 0x8, addend: 0x0, symName: _glad_glEndConditionalRender, symObjAddr: 0x18C00, symBinAddr: 0x100018310, symSize: 0x0 }
  - { offsetInCU: 0x14AC, offset: 0x3635E, size: 0x8, addend: 0x0, symName: _glad_glEndQuery, symObjAddr: 0x18C08, symBinAddr: 0x100018318, symSize: 0x0 }
  - { offsetInCU: 0x14CF, offset: 0x36381, size: 0x8, addend: 0x0, symName: _glad_glEndTransformFeedback, symObjAddr: 0x18C10, symBinAddr: 0x100018320, symSize: 0x0 }
  - { offsetInCU: 0x14F2, offset: 0x363A4, size: 0x8, addend: 0x0, symName: _glad_glFenceSync, symObjAddr: 0x18C18, symBinAddr: 0x100018328, symSize: 0x0 }
  - { offsetInCU: 0x152A, offset: 0x363DC, size: 0x8, addend: 0x0, symName: _glad_glFinish, symObjAddr: 0x18C20, symBinAddr: 0x100018330, symSize: 0x0 }
  - { offsetInCU: 0x154D, offset: 0x363FF, size: 0x8, addend: 0x0, symName: _glad_glFlush, symObjAddr: 0x18C28, symBinAddr: 0x100018338, symSize: 0x0 }
  - { offsetInCU: 0x1570, offset: 0x36422, size: 0x8, addend: 0x0, symName: _glad_glFlushMappedBufferRange, symObjAddr: 0x18C30, symBinAddr: 0x100018340, symSize: 0x0 }
  - { offsetInCU: 0x15A9, offset: 0x3645B, size: 0x8, addend: 0x0, symName: _glad_glFramebufferRenderbuffer, symObjAddr: 0x18C38, symBinAddr: 0x100018348, symSize: 0x0 }
  - { offsetInCU: 0x15E7, offset: 0x36499, size: 0x8, addend: 0x0, symName: _glad_glFramebufferTexture, symObjAddr: 0x18C40, symBinAddr: 0x100018350, symSize: 0x0 }
  - { offsetInCU: 0x1625, offset: 0x364D7, size: 0x8, addend: 0x0, symName: _glad_glFramebufferTexture1D, symObjAddr: 0x18C48, symBinAddr: 0x100018358, symSize: 0x0 }
  - { offsetInCU: 0x1668, offset: 0x3651A, size: 0x8, addend: 0x0, symName: _glad_glFramebufferTexture2D, symObjAddr: 0x18C50, symBinAddr: 0x100018360, symSize: 0x0 }
  - { offsetInCU: 0x168B, offset: 0x3653D, size: 0x8, addend: 0x0, symName: _glad_glFramebufferTexture3D, symObjAddr: 0x18C58, symBinAddr: 0x100018368, symSize: 0x0 }
  - { offsetInCU: 0x16D3, offset: 0x36585, size: 0x8, addend: 0x0, symName: _glad_glFramebufferTextureLayer, symObjAddr: 0x18C60, symBinAddr: 0x100018370, symSize: 0x0 }
  - { offsetInCU: 0x1716, offset: 0x365C8, size: 0x8, addend: 0x0, symName: _glad_glFrontFace, symObjAddr: 0x18C68, symBinAddr: 0x100018378, symSize: 0x0 }
  - { offsetInCU: 0x1739, offset: 0x365EB, size: 0x8, addend: 0x0, symName: _glad_glGenBuffers, symObjAddr: 0x18C70, symBinAddr: 0x100018380, symSize: 0x0 }
  - { offsetInCU: 0x1772, offset: 0x36624, size: 0x8, addend: 0x0, symName: _glad_glGenFramebuffers, symObjAddr: 0x18C78, symBinAddr: 0x100018388, symSize: 0x0 }
  - { offsetInCU: 0x1795, offset: 0x36647, size: 0x8, addend: 0x0, symName: _glad_glGenQueries, symObjAddr: 0x18C80, symBinAddr: 0x100018390, symSize: 0x0 }
  - { offsetInCU: 0x17B8, offset: 0x3666A, size: 0x8, addend: 0x0, symName: _glad_glGenRenderbuffers, symObjAddr: 0x18C88, symBinAddr: 0x100018398, symSize: 0x0 }
  - { offsetInCU: 0x17DB, offset: 0x3668D, size: 0x8, addend: 0x0, symName: _glad_glGenSamplers, symObjAddr: 0x18C90, symBinAddr: 0x1000183A0, symSize: 0x0 }
  - { offsetInCU: 0x17FE, offset: 0x366B0, size: 0x8, addend: 0x0, symName: _glad_glGenTextures, symObjAddr: 0x18C98, symBinAddr: 0x1000183A8, symSize: 0x0 }
  - { offsetInCU: 0x1821, offset: 0x366D3, size: 0x8, addend: 0x0, symName: _glad_glGenVertexArrays, symObjAddr: 0x18CA0, symBinAddr: 0x1000183B0, symSize: 0x0 }
  - { offsetInCU: 0x1844, offset: 0x366F6, size: 0x8, addend: 0x0, symName: _glad_glGenerateMipmap, symObjAddr: 0x18CA8, symBinAddr: 0x1000183B8, symSize: 0x0 }
  - { offsetInCU: 0x1867, offset: 0x36719, size: 0x8, addend: 0x0, symName: _glad_glGetActiveAttrib, symObjAddr: 0x18CB0, symBinAddr: 0x1000183C0, symSize: 0x0 }
  - { offsetInCU: 0x18C8, offset: 0x3677A, size: 0x8, addend: 0x0, symName: _glad_glGetActiveUniform, symObjAddr: 0x18CB8, symBinAddr: 0x1000183C8, symSize: 0x0 }
  - { offsetInCU: 0x18EB, offset: 0x3679D, size: 0x8, addend: 0x0, symName: _glad_glGetActiveUniformBlockName, symObjAddr: 0x18CC0, symBinAddr: 0x1000183D0, symSize: 0x0 }
  - { offsetInCU: 0x192E, offset: 0x367E0, size: 0x8, addend: 0x0, symName: _glad_glGetActiveUniformBlockiv, symObjAddr: 0x18CC8, symBinAddr: 0x1000183D8, symSize: 0x0 }
  - { offsetInCU: 0x196C, offset: 0x3681E, size: 0x8, addend: 0x0, symName: _glad_glGetActiveUniformName, symObjAddr: 0x18CD0, symBinAddr: 0x1000183E0, symSize: 0x0 }
  - { offsetInCU: 0x198F, offset: 0x36841, size: 0x8, addend: 0x0, symName: _glad_glGetActiveUniformsiv, symObjAddr: 0x18CD8, symBinAddr: 0x1000183E8, symSize: 0x0 }
  - { offsetInCU: 0x19D2, offset: 0x36884, size: 0x8, addend: 0x0, symName: _glad_glGetAttachedShaders, symObjAddr: 0x18CE0, symBinAddr: 0x1000183F0, symSize: 0x0 }
  - { offsetInCU: 0x1A10, offset: 0x368C2, size: 0x8, addend: 0x0, symName: _glad_glGetAttribLocation, symObjAddr: 0x18CE8, symBinAddr: 0x1000183F8, symSize: 0x0 }
  - { offsetInCU: 0x1A48, offset: 0x368FA, size: 0x8, addend: 0x0, symName: _glad_glGetBooleani_v, symObjAddr: 0x18CF0, symBinAddr: 0x100018400, symSize: 0x0 }
  - { offsetInCU: 0x1A86, offset: 0x36938, size: 0x8, addend: 0x0, symName: _glad_glGetBooleanv, symObjAddr: 0x18CF8, symBinAddr: 0x100018408, symSize: 0x0 }
  - { offsetInCU: 0x1ABA, offset: 0x3696C, size: 0x8, addend: 0x0, symName: _glad_glGetBufferParameteri64v, symObjAddr: 0x18D00, symBinAddr: 0x100018410, symSize: 0x0 }
  - { offsetInCU: 0x1B15, offset: 0x369C7, size: 0x8, addend: 0x0, symName: _glad_glGetBufferParameteriv, symObjAddr: 0x18D08, symBinAddr: 0x100018418, symSize: 0x0 }
  - { offsetInCU: 0x1B4E, offset: 0x36A00, size: 0x8, addend: 0x0, symName: _glad_glGetBufferPointerv, symObjAddr: 0x18D10, symBinAddr: 0x100018420, symSize: 0x0 }
  - { offsetInCU: 0x1B8D, offset: 0x36A3F, size: 0x8, addend: 0x0, symName: _glad_glGetBufferSubData, symObjAddr: 0x18D18, symBinAddr: 0x100018428, symSize: 0x0 }
  - { offsetInCU: 0x1BCB, offset: 0x36A7D, size: 0x8, addend: 0x0, symName: _glad_glGetCompressedTexImage, symObjAddr: 0x18D20, symBinAddr: 0x100018430, symSize: 0x0 }
  - { offsetInCU: 0x1C04, offset: 0x36AB6, size: 0x8, addend: 0x0, symName: _glad_glGetDoublev, symObjAddr: 0x18D28, symBinAddr: 0x100018438, symSize: 0x0 }
  - { offsetInCU: 0x1C3D, offset: 0x36AEF, size: 0x8, addend: 0x0, symName: _glad_glGetError, symObjAddr: 0x18D30, symBinAddr: 0x100018440, symSize: 0x0 }
  - { offsetInCU: 0x1C6B, offset: 0x36B1D, size: 0x8, addend: 0x0, symName: _glad_glGetFloatv, symObjAddr: 0x18D38, symBinAddr: 0x100018448, symSize: 0x0 }
  - { offsetInCU: 0x1CA4, offset: 0x36B56, size: 0x8, addend: 0x0, symName: _glad_glGetFragDataIndex, symObjAddr: 0x18D40, symBinAddr: 0x100018450, symSize: 0x0 }
  - { offsetInCU: 0x1CC7, offset: 0x36B79, size: 0x8, addend: 0x0, symName: _glad_glGetFragDataLocation, symObjAddr: 0x18D48, symBinAddr: 0x100018458, symSize: 0x0 }
  - { offsetInCU: 0x1CEA, offset: 0x36B9C, size: 0x8, addend: 0x0, symName: _glad_glGetFramebufferAttachmentParameteriv, symObjAddr: 0x18D50, symBinAddr: 0x100018460, symSize: 0x0 }
  - { offsetInCU: 0x1D28, offset: 0x36BDA, size: 0x8, addend: 0x0, symName: _glad_glGetInteger64i_v, symObjAddr: 0x18D58, symBinAddr: 0x100018468, symSize: 0x0 }
  - { offsetInCU: 0x1D61, offset: 0x36C13, size: 0x8, addend: 0x0, symName: _glad_glGetInteger64v, symObjAddr: 0x18D60, symBinAddr: 0x100018470, symSize: 0x0 }
  - { offsetInCU: 0x1D95, offset: 0x36C47, size: 0x8, addend: 0x0, symName: _glad_glGetIntegeri_v, symObjAddr: 0x18D68, symBinAddr: 0x100018478, symSize: 0x0 }
  - { offsetInCU: 0x1DCE, offset: 0x36C80, size: 0x8, addend: 0x0, symName: _glad_glGetIntegerv, symObjAddr: 0x18D70, symBinAddr: 0x100018480, symSize: 0x0 }
  - { offsetInCU: 0x1E02, offset: 0x36CB4, size: 0x8, addend: 0x0, symName: _glad_glGetMultisamplefv, symObjAddr: 0x18D78, symBinAddr: 0x100018488, symSize: 0x0 }
  - { offsetInCU: 0x1E3B, offset: 0x36CED, size: 0x8, addend: 0x0, symName: _glad_glGetProgramInfoLog, symObjAddr: 0x18D80, symBinAddr: 0x100018490, symSize: 0x0 }
  - { offsetInCU: 0x1E79, offset: 0x36D2B, size: 0x8, addend: 0x0, symName: _glad_glGetProgramiv, symObjAddr: 0x18D88, symBinAddr: 0x100018498, symSize: 0x0 }
  - { offsetInCU: 0x1EB2, offset: 0x36D64, size: 0x8, addend: 0x0, symName: _glad_glGetQueryObjecti64v, symObjAddr: 0x18D90, symBinAddr: 0x1000184A0, symSize: 0x0 }
  - { offsetInCU: 0x1EEB, offset: 0x36D9D, size: 0x8, addend: 0x0, symName: _glad_glGetQueryObjectiv, symObjAddr: 0x18D98, symBinAddr: 0x1000184A8, symSize: 0x0 }
  - { offsetInCU: 0x1F0E, offset: 0x36DC0, size: 0x8, addend: 0x0, symName: _glad_glGetQueryObjectui64v, symObjAddr: 0x18DA0, symBinAddr: 0x1000184B0, symSize: 0x0 }
  - { offsetInCU: 0x1F4C, offset: 0x36DFE, size: 0x8, addend: 0x0, symName: _glad_glGetQueryObjectuiv, symObjAddr: 0x18DA8, symBinAddr: 0x1000184B8, symSize: 0x0 }
  - { offsetInCU: 0x1F85, offset: 0x36E37, size: 0x8, addend: 0x0, symName: _glad_glGetQueryiv, symObjAddr: 0x18DB0, symBinAddr: 0x1000184C0, symSize: 0x0 }
  - { offsetInCU: 0x1FA8, offset: 0x36E5A, size: 0x8, addend: 0x0, symName: _glad_glGetRenderbufferParameteriv, symObjAddr: 0x18DB8, symBinAddr: 0x1000184C8, symSize: 0x0 }
  - { offsetInCU: 0x1FCB, offset: 0x36E7D, size: 0x8, addend: 0x0, symName: _glad_glGetSamplerParameterIiv, symObjAddr: 0x18DC0, symBinAddr: 0x1000184D0, symSize: 0x0 }
  - { offsetInCU: 0x1FEE, offset: 0x36EA0, size: 0x8, addend: 0x0, symName: _glad_glGetSamplerParameterIuiv, symObjAddr: 0x18DC8, symBinAddr: 0x1000184D8, symSize: 0x0 }
  - { offsetInCU: 0x2011, offset: 0x36EC3, size: 0x8, addend: 0x0, symName: _glad_glGetSamplerParameterfv, symObjAddr: 0x18DD0, symBinAddr: 0x1000184E0, symSize: 0x0 }
  - { offsetInCU: 0x204A, offset: 0x36EFC, size: 0x8, addend: 0x0, symName: _glad_glGetSamplerParameteriv, symObjAddr: 0x18DD8, symBinAddr: 0x1000184E8, symSize: 0x0 }
  - { offsetInCU: 0x206D, offset: 0x36F1F, size: 0x8, addend: 0x0, symName: _glad_glGetShaderInfoLog, symObjAddr: 0x18DE0, symBinAddr: 0x1000184F0, symSize: 0x0 }
  - { offsetInCU: 0x2090, offset: 0x36F42, size: 0x8, addend: 0x0, symName: _glad_glGetShaderSource, symObjAddr: 0x18DE8, symBinAddr: 0x1000184F8, symSize: 0x0 }
  - { offsetInCU: 0x20B3, offset: 0x36F65, size: 0x8, addend: 0x0, symName: _glad_glGetShaderiv, symObjAddr: 0x18DF0, symBinAddr: 0x100018500, symSize: 0x0 }
  - { offsetInCU: 0x20D6, offset: 0x36F88, size: 0x8, addend: 0x0, symName: _glad_glGetString, symObjAddr: 0x18DF8, symBinAddr: 0x100018508, symSize: 0x0 }
  - { offsetInCU: 0x2129, offset: 0x36FDB, size: 0x8, addend: 0x0, symName: _glad_glGetStringi, symObjAddr: 0x18E00, symBinAddr: 0x100018510, symSize: 0x0 }
  - { offsetInCU: 0x2161, offset: 0x37013, size: 0x8, addend: 0x0, symName: _glad_glGetSynciv, symObjAddr: 0x18E08, symBinAddr: 0x100018518, symSize: 0x0 }
  - { offsetInCU: 0x21A4, offset: 0x37056, size: 0x8, addend: 0x0, symName: _glad_glGetTexImage, symObjAddr: 0x18E10, symBinAddr: 0x100018520, symSize: 0x0 }
  - { offsetInCU: 0x21E7, offset: 0x37099, size: 0x8, addend: 0x0, symName: _glad_glGetTexLevelParameterfv, symObjAddr: 0x18E18, symBinAddr: 0x100018528, symSize: 0x0 }
  - { offsetInCU: 0x2225, offset: 0x370D7, size: 0x8, addend: 0x0, symName: _glad_glGetTexLevelParameteriv, symObjAddr: 0x18E20, symBinAddr: 0x100018530, symSize: 0x0 }
  - { offsetInCU: 0x2263, offset: 0x37115, size: 0x8, addend: 0x0, symName: _glad_glGetTexParameterIiv, symObjAddr: 0x18E28, symBinAddr: 0x100018538, symSize: 0x0 }
  - { offsetInCU: 0x2286, offset: 0x37138, size: 0x8, addend: 0x0, symName: _glad_glGetTexParameterIuiv, symObjAddr: 0x18E30, symBinAddr: 0x100018540, symSize: 0x0 }
  - { offsetInCU: 0x22BF, offset: 0x37171, size: 0x8, addend: 0x0, symName: _glad_glGetTexParameterfv, symObjAddr: 0x18E38, symBinAddr: 0x100018548, symSize: 0x0 }
  - { offsetInCU: 0x22F8, offset: 0x371AA, size: 0x8, addend: 0x0, symName: _glad_glGetTexParameteriv, symObjAddr: 0x18E40, symBinAddr: 0x100018550, symSize: 0x0 }
  - { offsetInCU: 0x231B, offset: 0x371CD, size: 0x8, addend: 0x0, symName: _glad_glGetTransformFeedbackVarying, symObjAddr: 0x18E48, symBinAddr: 0x100018558, symSize: 0x0 }
  - { offsetInCU: 0x2368, offset: 0x3721A, size: 0x8, addend: 0x0, symName: _glad_glGetUniformBlockIndex, symObjAddr: 0x18E50, symBinAddr: 0x100018560, symSize: 0x0 }
  - { offsetInCU: 0x23A0, offset: 0x37252, size: 0x8, addend: 0x0, symName: _glad_glGetUniformIndices, symObjAddr: 0x18E58, symBinAddr: 0x100018568, symSize: 0x0 }
  - { offsetInCU: 0x23E8, offset: 0x3729A, size: 0x8, addend: 0x0, symName: _glad_glGetUniformLocation, symObjAddr: 0x18E60, symBinAddr: 0x100018570, symSize: 0x0 }
  - { offsetInCU: 0x240B, offset: 0x372BD, size: 0x8, addend: 0x0, symName: _glad_glGetUniformfv, symObjAddr: 0x18E68, symBinAddr: 0x100018578, symSize: 0x0 }
  - { offsetInCU: 0x2444, offset: 0x372F6, size: 0x8, addend: 0x0, symName: _glad_glGetUniformiv, symObjAddr: 0x18E70, symBinAddr: 0x100018580, symSize: 0x0 }
  - { offsetInCU: 0x247D, offset: 0x3732F, size: 0x8, addend: 0x0, symName: _glad_glGetUniformuiv, symObjAddr: 0x18E78, symBinAddr: 0x100018588, symSize: 0x0 }
  - { offsetInCU: 0x24B6, offset: 0x37368, size: 0x8, addend: 0x0, symName: _glad_glGetVertexAttribIiv, symObjAddr: 0x18E80, symBinAddr: 0x100018590, symSize: 0x0 }
  - { offsetInCU: 0x24D9, offset: 0x3738B, size: 0x8, addend: 0x0, symName: _glad_glGetVertexAttribIuiv, symObjAddr: 0x18E88, symBinAddr: 0x100018598, symSize: 0x0 }
  - { offsetInCU: 0x24FC, offset: 0x373AE, size: 0x8, addend: 0x0, symName: _glad_glGetVertexAttribPointerv, symObjAddr: 0x18E90, symBinAddr: 0x1000185A0, symSize: 0x0 }
  - { offsetInCU: 0x2535, offset: 0x373E7, size: 0x8, addend: 0x0, symName: _glad_glGetVertexAttribdv, symObjAddr: 0x18E98, symBinAddr: 0x1000185A8, symSize: 0x0 }
  - { offsetInCU: 0x256E, offset: 0x37420, size: 0x8, addend: 0x0, symName: _glad_glGetVertexAttribfv, symObjAddr: 0x18EA0, symBinAddr: 0x1000185B0, symSize: 0x0 }
  - { offsetInCU: 0x2591, offset: 0x37443, size: 0x8, addend: 0x0, symName: _glad_glGetVertexAttribiv, symObjAddr: 0x18EA8, symBinAddr: 0x1000185B8, symSize: 0x0 }
  - { offsetInCU: 0x25B4, offset: 0x37466, size: 0x8, addend: 0x0, symName: _glad_glHint, symObjAddr: 0x18EB0, symBinAddr: 0x1000185C0, symSize: 0x0 }
  - { offsetInCU: 0x25D7, offset: 0x37489, size: 0x8, addend: 0x0, symName: _glad_glIsBuffer, symObjAddr: 0x18EB8, symBinAddr: 0x1000185C8, symSize: 0x0 }
  - { offsetInCU: 0x260A, offset: 0x374BC, size: 0x8, addend: 0x0, symName: _glad_glIsEnabled, symObjAddr: 0x18EC0, symBinAddr: 0x1000185D0, symSize: 0x0 }
  - { offsetInCU: 0x263D, offset: 0x374EF, size: 0x8, addend: 0x0, symName: _glad_glIsEnabledi, symObjAddr: 0x18EC8, symBinAddr: 0x1000185D8, symSize: 0x0 }
  - { offsetInCU: 0x2675, offset: 0x37527, size: 0x8, addend: 0x0, symName: _glad_glIsFramebuffer, symObjAddr: 0x18ED0, symBinAddr: 0x1000185E0, symSize: 0x0 }
  - { offsetInCU: 0x2698, offset: 0x3754A, size: 0x8, addend: 0x0, symName: _glad_glIsProgram, symObjAddr: 0x18ED8, symBinAddr: 0x1000185E8, symSize: 0x0 }
  - { offsetInCU: 0x26BB, offset: 0x3756D, size: 0x8, addend: 0x0, symName: _glad_glIsQuery, symObjAddr: 0x18EE0, symBinAddr: 0x1000185F0, symSize: 0x0 }
  - { offsetInCU: 0x26DE, offset: 0x37590, size: 0x8, addend: 0x0, symName: _glad_glIsRenderbuffer, symObjAddr: 0x18EE8, symBinAddr: 0x1000185F8, symSize: 0x0 }
  - { offsetInCU: 0x2701, offset: 0x375B3, size: 0x8, addend: 0x0, symName: _glad_glIsSampler, symObjAddr: 0x18EF0, symBinAddr: 0x100018600, symSize: 0x0 }
  - { offsetInCU: 0x2724, offset: 0x375D6, size: 0x8, addend: 0x0, symName: _glad_glIsShader, symObjAddr: 0x18EF8, symBinAddr: 0x100018608, symSize: 0x0 }
  - { offsetInCU: 0x2747, offset: 0x375F9, size: 0x8, addend: 0x0, symName: _glad_glIsSync, symObjAddr: 0x18F00, symBinAddr: 0x100018610, symSize: 0x0 }
  - { offsetInCU: 0x277A, offset: 0x3762C, size: 0x8, addend: 0x0, symName: _glad_glIsTexture, symObjAddr: 0x18F08, symBinAddr: 0x100018618, symSize: 0x0 }
  - { offsetInCU: 0x279D, offset: 0x3764F, size: 0x8, addend: 0x0, symName: _glad_glIsVertexArray, symObjAddr: 0x18F10, symBinAddr: 0x100018620, symSize: 0x0 }
  - { offsetInCU: 0x27C0, offset: 0x37672, size: 0x8, addend: 0x0, symName: _glad_glLineWidth, symObjAddr: 0x18F18, symBinAddr: 0x100018628, symSize: 0x0 }
  - { offsetInCU: 0x27EF, offset: 0x376A1, size: 0x8, addend: 0x0, symName: _glad_glLinkProgram, symObjAddr: 0x18F20, symBinAddr: 0x100018630, symSize: 0x0 }
  - { offsetInCU: 0x2812, offset: 0x376C4, size: 0x8, addend: 0x0, symName: _glad_glLogicOp, symObjAddr: 0x18F28, symBinAddr: 0x100018638, symSize: 0x0 }
  - { offsetInCU: 0x2835, offset: 0x376E7, size: 0x8, addend: 0x0, symName: _glad_glMapBuffer, symObjAddr: 0x18F30, symBinAddr: 0x100018640, symSize: 0x0 }
  - { offsetInCU: 0x286D, offset: 0x3771F, size: 0x8, addend: 0x0, symName: _glad_glMapBufferRange, symObjAddr: 0x18F38, symBinAddr: 0x100018648, symSize: 0x0 }
  - { offsetInCU: 0x28AF, offset: 0x37761, size: 0x8, addend: 0x0, symName: _glad_glMultiDrawArrays, symObjAddr: 0x18F40, symBinAddr: 0x100018650, symSize: 0x0 }
  - { offsetInCU: 0x28F7, offset: 0x377A9, size: 0x8, addend: 0x0, symName: _glad_glMultiDrawElements, symObjAddr: 0x18F48, symBinAddr: 0x100018658, symSize: 0x0 }
  - { offsetInCU: 0x2944, offset: 0x377F6, size: 0x8, addend: 0x0, symName: _glad_glMultiDrawElementsBaseVertex, symObjAddr: 0x18F50, symBinAddr: 0x100018660, symSize: 0x0 }
  - { offsetInCU: 0x298C, offset: 0x3783E, size: 0x8, addend: 0x0, symName: _glad_glMultiTexCoordP1ui, symObjAddr: 0x18F58, symBinAddr: 0x100018668, symSize: 0x0 }
  - { offsetInCU: 0x29C5, offset: 0x37877, size: 0x8, addend: 0x0, symName: _glad_glMultiTexCoordP1uiv, symObjAddr: 0x18F60, symBinAddr: 0x100018670, symSize: 0x0 }
  - { offsetInCU: 0x29FE, offset: 0x378B0, size: 0x8, addend: 0x0, symName: _glad_glMultiTexCoordP2ui, symObjAddr: 0x18F68, symBinAddr: 0x100018678, symSize: 0x0 }
  - { offsetInCU: 0x2A21, offset: 0x378D3, size: 0x8, addend: 0x0, symName: _glad_glMultiTexCoordP2uiv, symObjAddr: 0x18F70, symBinAddr: 0x100018680, symSize: 0x0 }
  - { offsetInCU: 0x2A44, offset: 0x378F6, size: 0x8, addend: 0x0, symName: _glad_glMultiTexCoordP3ui, symObjAddr: 0x18F78, symBinAddr: 0x100018688, symSize: 0x0 }
  - { offsetInCU: 0x2A67, offset: 0x37919, size: 0x8, addend: 0x0, symName: _glad_glMultiTexCoordP3uiv, symObjAddr: 0x18F80, symBinAddr: 0x100018690, symSize: 0x0 }
  - { offsetInCU: 0x2A8A, offset: 0x3793C, size: 0x8, addend: 0x0, symName: _glad_glMultiTexCoordP4ui, symObjAddr: 0x18F88, symBinAddr: 0x100018698, symSize: 0x0 }
  - { offsetInCU: 0x2AAD, offset: 0x3795F, size: 0x8, addend: 0x0, symName: _glad_glMultiTexCoordP4uiv, symObjAddr: 0x18F90, symBinAddr: 0x1000186A0, symSize: 0x0 }
  - { offsetInCU: 0x2AD0, offset: 0x37982, size: 0x8, addend: 0x0, symName: _glad_glNormalP3ui, symObjAddr: 0x18F98, symBinAddr: 0x1000186A8, symSize: 0x0 }
  - { offsetInCU: 0x2AF3, offset: 0x379A5, size: 0x8, addend: 0x0, symName: _glad_glNormalP3uiv, symObjAddr: 0x18FA0, symBinAddr: 0x1000186B0, symSize: 0x0 }
  - { offsetInCU: 0x2B16, offset: 0x379C8, size: 0x8, addend: 0x0, symName: _glad_glPixelStoref, symObjAddr: 0x18FA8, symBinAddr: 0x1000186B8, symSize: 0x0 }
  - { offsetInCU: 0x2B4A, offset: 0x379FC, size: 0x8, addend: 0x0, symName: _glad_glPixelStorei, symObjAddr: 0x18FB0, symBinAddr: 0x1000186C0, symSize: 0x0 }
  - { offsetInCU: 0x2B7E, offset: 0x37A30, size: 0x8, addend: 0x0, symName: _glad_glPointParameterf, symObjAddr: 0x18FB8, symBinAddr: 0x1000186C8, symSize: 0x0 }
  - { offsetInCU: 0x2BA1, offset: 0x37A53, size: 0x8, addend: 0x0, symName: _glad_glPointParameterfv, symObjAddr: 0x18FC0, symBinAddr: 0x1000186D0, symSize: 0x0 }
  - { offsetInCU: 0x2BD5, offset: 0x37A87, size: 0x8, addend: 0x0, symName: _glad_glPointParameteri, symObjAddr: 0x18FC8, symBinAddr: 0x1000186D8, symSize: 0x0 }
  - { offsetInCU: 0x2BF8, offset: 0x37AAA, size: 0x8, addend: 0x0, symName: _glad_glPointParameteriv, symObjAddr: 0x18FD0, symBinAddr: 0x1000186E0, symSize: 0x0 }
  - { offsetInCU: 0x2C2C, offset: 0x37ADE, size: 0x8, addend: 0x0, symName: _glad_glPointSize, symObjAddr: 0x18FD8, symBinAddr: 0x1000186E8, symSize: 0x0 }
  - { offsetInCU: 0x2C4F, offset: 0x37B01, size: 0x8, addend: 0x0, symName: _glad_glPolygonMode, symObjAddr: 0x18FE0, symBinAddr: 0x1000186F0, symSize: 0x0 }
  - { offsetInCU: 0x2C72, offset: 0x37B24, size: 0x8, addend: 0x0, symName: _glad_glPolygonOffset, symObjAddr: 0x18FE8, symBinAddr: 0x1000186F8, symSize: 0x0 }
  - { offsetInCU: 0x2CA6, offset: 0x37B58, size: 0x8, addend: 0x0, symName: _glad_glPrimitiveRestartIndex, symObjAddr: 0x18FF0, symBinAddr: 0x100018700, symSize: 0x0 }
  - { offsetInCU: 0x2CC9, offset: 0x37B7B, size: 0x8, addend: 0x0, symName: _glad_glProvokingVertex, symObjAddr: 0x18FF8, symBinAddr: 0x100018708, symSize: 0x0 }
  - { offsetInCU: 0x2CEC, offset: 0x37B9E, size: 0x8, addend: 0x0, symName: _glad_glQueryCounter, symObjAddr: 0x19000, symBinAddr: 0x100018710, symSize: 0x0 }
  - { offsetInCU: 0x2D0F, offset: 0x37BC1, size: 0x8, addend: 0x0, symName: _glad_glReadBuffer, symObjAddr: 0x19008, symBinAddr: 0x100018718, symSize: 0x0 }
  - { offsetInCU: 0x2D32, offset: 0x37BE4, size: 0x8, addend: 0x0, symName: _glad_glReadPixels, symObjAddr: 0x19010, symBinAddr: 0x100018720, symSize: 0x0 }
  - { offsetInCU: 0x2D7F, offset: 0x37C31, size: 0x8, addend: 0x0, symName: _glad_glRenderbufferStorage, symObjAddr: 0x19018, symBinAddr: 0x100018728, symSize: 0x0 }
  - { offsetInCU: 0x2DBD, offset: 0x37C6F, size: 0x8, addend: 0x0, symName: _glad_glRenderbufferStorageMultisample, symObjAddr: 0x19020, symBinAddr: 0x100018730, symSize: 0x0 }
  - { offsetInCU: 0x2E00, offset: 0x37CB2, size: 0x8, addend: 0x0, symName: _glad_glSampleCoverage, symObjAddr: 0x19028, symBinAddr: 0x100018738, symSize: 0x0 }
  - { offsetInCU: 0x2E34, offset: 0x37CE6, size: 0x8, addend: 0x0, symName: _glad_glSampleMaski, symObjAddr: 0x19030, symBinAddr: 0x100018740, symSize: 0x0 }
  - { offsetInCU: 0x2E68, offset: 0x37D1A, size: 0x8, addend: 0x0, symName: _glad_glSamplerParameterIiv, symObjAddr: 0x19038, symBinAddr: 0x100018748, symSize: 0x0 }
  - { offsetInCU: 0x2EA1, offset: 0x37D53, size: 0x8, addend: 0x0, symName: _glad_glSamplerParameterIuiv, symObjAddr: 0x19040, symBinAddr: 0x100018750, symSize: 0x0 }
  - { offsetInCU: 0x2EDA, offset: 0x37D8C, size: 0x8, addend: 0x0, symName: _glad_glSamplerParameterf, symObjAddr: 0x19048, symBinAddr: 0x100018758, symSize: 0x0 }
  - { offsetInCU: 0x2F13, offset: 0x37DC5, size: 0x8, addend: 0x0, symName: _glad_glSamplerParameterfv, symObjAddr: 0x19050, symBinAddr: 0x100018760, symSize: 0x0 }
  - { offsetInCU: 0x2F4C, offset: 0x37DFE, size: 0x8, addend: 0x0, symName: _glad_glSamplerParameteri, symObjAddr: 0x19058, symBinAddr: 0x100018768, symSize: 0x0 }
  - { offsetInCU: 0x2F85, offset: 0x37E37, size: 0x8, addend: 0x0, symName: _glad_glSamplerParameteriv, symObjAddr: 0x19060, symBinAddr: 0x100018770, symSize: 0x0 }
  - { offsetInCU: 0x2FA8, offset: 0x37E5A, size: 0x8, addend: 0x0, symName: _glad_glScissor, symObjAddr: 0x19068, symBinAddr: 0x100018778, symSize: 0x0 }
  - { offsetInCU: 0x2FE6, offset: 0x37E98, size: 0x8, addend: 0x0, symName: _glad_glSecondaryColorP3ui, symObjAddr: 0x19070, symBinAddr: 0x100018780, symSize: 0x0 }
  - { offsetInCU: 0x3009, offset: 0x37EBB, size: 0x8, addend: 0x0, symName: _glad_glSecondaryColorP3uiv, symObjAddr: 0x19078, symBinAddr: 0x100018788, symSize: 0x0 }
  - { offsetInCU: 0x302C, offset: 0x37EDE, size: 0x8, addend: 0x0, symName: _glad_glShaderSource, symObjAddr: 0x19080, symBinAddr: 0x100018790, symSize: 0x0 }
  - { offsetInCU: 0x306A, offset: 0x37F1C, size: 0x8, addend: 0x0, symName: _glad_glStencilFunc, symObjAddr: 0x19088, symBinAddr: 0x100018798, symSize: 0x0 }
  - { offsetInCU: 0x30A3, offset: 0x37F55, size: 0x8, addend: 0x0, symName: _glad_glStencilFuncSeparate, symObjAddr: 0x19090, symBinAddr: 0x1000187A0, symSize: 0x0 }
  - { offsetInCU: 0x30E1, offset: 0x37F93, size: 0x8, addend: 0x0, symName: _glad_glStencilMask, symObjAddr: 0x19098, symBinAddr: 0x1000187A8, symSize: 0x0 }
  - { offsetInCU: 0x3104, offset: 0x37FB6, size: 0x8, addend: 0x0, symName: _glad_glStencilMaskSeparate, symObjAddr: 0x190A0, symBinAddr: 0x1000187B0, symSize: 0x0 }
  - { offsetInCU: 0x3127, offset: 0x37FD9, size: 0x8, addend: 0x0, symName: _glad_glStencilOp, symObjAddr: 0x190A8, symBinAddr: 0x1000187B8, symSize: 0x0 }
  - { offsetInCU: 0x3160, offset: 0x38012, size: 0x8, addend: 0x0, symName: _glad_glStencilOpSeparate, symObjAddr: 0x190B0, symBinAddr: 0x1000187C0, symSize: 0x0 }
  - { offsetInCU: 0x3183, offset: 0x38035, size: 0x8, addend: 0x0, symName: _glad_glTexBuffer, symObjAddr: 0x190B8, symBinAddr: 0x1000187C8, symSize: 0x0 }
  - { offsetInCU: 0x31A6, offset: 0x38058, size: 0x8, addend: 0x0, symName: _glad_glTexCoordP1ui, symObjAddr: 0x190C0, symBinAddr: 0x1000187D0, symSize: 0x0 }
  - { offsetInCU: 0x31C9, offset: 0x3807B, size: 0x8, addend: 0x0, symName: _glad_glTexCoordP1uiv, symObjAddr: 0x190C8, symBinAddr: 0x1000187D8, symSize: 0x0 }
  - { offsetInCU: 0x31EC, offset: 0x3809E, size: 0x8, addend: 0x0, symName: _glad_glTexCoordP2ui, symObjAddr: 0x190D0, symBinAddr: 0x1000187E0, symSize: 0x0 }
  - { offsetInCU: 0x320F, offset: 0x380C1, size: 0x8, addend: 0x0, symName: _glad_glTexCoordP2uiv, symObjAddr: 0x190D8, symBinAddr: 0x1000187E8, symSize: 0x0 }
  - { offsetInCU: 0x3232, offset: 0x380E4, size: 0x8, addend: 0x0, symName: _glad_glTexCoordP3ui, symObjAddr: 0x190E0, symBinAddr: 0x1000187F0, symSize: 0x0 }
  - { offsetInCU: 0x3255, offset: 0x38107, size: 0x8, addend: 0x0, symName: _glad_glTexCoordP3uiv, symObjAddr: 0x190E8, symBinAddr: 0x1000187F8, symSize: 0x0 }
  - { offsetInCU: 0x3278, offset: 0x3812A, size: 0x8, addend: 0x0, symName: _glad_glTexCoordP4ui, symObjAddr: 0x190F0, symBinAddr: 0x100018800, symSize: 0x0 }
  - { offsetInCU: 0x329B, offset: 0x3814D, size: 0x8, addend: 0x0, symName: _glad_glTexCoordP4uiv, symObjAddr: 0x190F8, symBinAddr: 0x100018808, symSize: 0x0 }
  - { offsetInCU: 0x32BE, offset: 0x38170, size: 0x8, addend: 0x0, symName: _glad_glTexImage1D, symObjAddr: 0x19100, symBinAddr: 0x100018810, symSize: 0x0 }
  - { offsetInCU: 0x3310, offset: 0x381C2, size: 0x8, addend: 0x0, symName: _glad_glTexImage2D, symObjAddr: 0x19108, symBinAddr: 0x100018818, symSize: 0x0 }
  - { offsetInCU: 0x3367, offset: 0x38219, size: 0x8, addend: 0x0, symName: _glad_glTexImage2DMultisample, symObjAddr: 0x19110, symBinAddr: 0x100018820, symSize: 0x0 }
  - { offsetInCU: 0x33AF, offset: 0x38261, size: 0x8, addend: 0x0, symName: _glad_glTexImage3D, symObjAddr: 0x19118, symBinAddr: 0x100018828, symSize: 0x0 }
  - { offsetInCU: 0x340B, offset: 0x382BD, size: 0x8, addend: 0x0, symName: _glad_glTexImage3DMultisample, symObjAddr: 0x19120, symBinAddr: 0x100018830, symSize: 0x0 }
  - { offsetInCU: 0x3458, offset: 0x3830A, size: 0x8, addend: 0x0, symName: _glad_glTexParameterIiv, symObjAddr: 0x19128, symBinAddr: 0x100018838, symSize: 0x0 }
  - { offsetInCU: 0x3491, offset: 0x38343, size: 0x8, addend: 0x0, symName: _glad_glTexParameterIuiv, symObjAddr: 0x19130, symBinAddr: 0x100018840, symSize: 0x0 }
  - { offsetInCU: 0x34B4, offset: 0x38366, size: 0x8, addend: 0x0, symName: _glad_glTexParameterf, symObjAddr: 0x19138, symBinAddr: 0x100018848, symSize: 0x0 }
  - { offsetInCU: 0x34ED, offset: 0x3839F, size: 0x8, addend: 0x0, symName: _glad_glTexParameterfv, symObjAddr: 0x19140, symBinAddr: 0x100018850, symSize: 0x0 }
  - { offsetInCU: 0x3526, offset: 0x383D8, size: 0x8, addend: 0x0, symName: _glad_glTexParameteri, symObjAddr: 0x19148, symBinAddr: 0x100018858, symSize: 0x0 }
  - { offsetInCU: 0x355F, offset: 0x38411, size: 0x8, addend: 0x0, symName: _glad_glTexParameteriv, symObjAddr: 0x19150, symBinAddr: 0x100018860, symSize: 0x0 }
  - { offsetInCU: 0x3582, offset: 0x38434, size: 0x8, addend: 0x0, symName: _glad_glTexSubImage1D, symObjAddr: 0x19158, symBinAddr: 0x100018868, symSize: 0x0 }
  - { offsetInCU: 0x35CF, offset: 0x38481, size: 0x8, addend: 0x0, symName: _glad_glTexSubImage2D, symObjAddr: 0x19160, symBinAddr: 0x100018870, symSize: 0x0 }
  - { offsetInCU: 0x3626, offset: 0x384D8, size: 0x8, addend: 0x0, symName: _glad_glTexSubImage3D, symObjAddr: 0x19168, symBinAddr: 0x100018878, symSize: 0x0 }
  - { offsetInCU: 0x3687, offset: 0x38539, size: 0x8, addend: 0x0, symName: _glad_glTransformFeedbackVaryings, symObjAddr: 0x19170, symBinAddr: 0x100018880, symSize: 0x0 }
  - { offsetInCU: 0x36C5, offset: 0x38577, size: 0x8, addend: 0x0, symName: _glad_glUniform1f, symObjAddr: 0x19178, symBinAddr: 0x100018888, symSize: 0x0 }
  - { offsetInCU: 0x36F9, offset: 0x385AB, size: 0x8, addend: 0x0, symName: _glad_glUniform1fv, symObjAddr: 0x19180, symBinAddr: 0x100018890, symSize: 0x0 }
  - { offsetInCU: 0x3732, offset: 0x385E4, size: 0x8, addend: 0x0, symName: _glad_glUniform1i, symObjAddr: 0x19188, symBinAddr: 0x100018898, symSize: 0x0 }
  - { offsetInCU: 0x3766, offset: 0x38618, size: 0x8, addend: 0x0, symName: _glad_glUniform1iv, symObjAddr: 0x19190, symBinAddr: 0x1000188A0, symSize: 0x0 }
  - { offsetInCU: 0x379F, offset: 0x38651, size: 0x8, addend: 0x0, symName: _glad_glUniform1ui, symObjAddr: 0x19198, symBinAddr: 0x1000188A8, symSize: 0x0 }
  - { offsetInCU: 0x37D3, offset: 0x38685, size: 0x8, addend: 0x0, symName: _glad_glUniform1uiv, symObjAddr: 0x191A0, symBinAddr: 0x1000188B0, symSize: 0x0 }
  - { offsetInCU: 0x380C, offset: 0x386BE, size: 0x8, addend: 0x0, symName: _glad_glUniform2f, symObjAddr: 0x191A8, symBinAddr: 0x1000188B8, symSize: 0x0 }
  - { offsetInCU: 0x3845, offset: 0x386F7, size: 0x8, addend: 0x0, symName: _glad_glUniform2fv, symObjAddr: 0x191B0, symBinAddr: 0x1000188C0, symSize: 0x0 }
  - { offsetInCU: 0x3868, offset: 0x3871A, size: 0x8, addend: 0x0, symName: _glad_glUniform2i, symObjAddr: 0x191B8, symBinAddr: 0x1000188C8, symSize: 0x0 }
  - { offsetInCU: 0x38A1, offset: 0x38753, size: 0x8, addend: 0x0, symName: _glad_glUniform2iv, symObjAddr: 0x191C0, symBinAddr: 0x1000188D0, symSize: 0x0 }
  - { offsetInCU: 0x38C4, offset: 0x38776, size: 0x8, addend: 0x0, symName: _glad_glUniform2ui, symObjAddr: 0x191C8, symBinAddr: 0x1000188D8, symSize: 0x0 }
  - { offsetInCU: 0x38FD, offset: 0x387AF, size: 0x8, addend: 0x0, symName: _glad_glUniform2uiv, symObjAddr: 0x191D0, symBinAddr: 0x1000188E0, symSize: 0x0 }
  - { offsetInCU: 0x3920, offset: 0x387D2, size: 0x8, addend: 0x0, symName: _glad_glUniform3f, symObjAddr: 0x191D8, symBinAddr: 0x1000188E8, symSize: 0x0 }
  - { offsetInCU: 0x395E, offset: 0x38810, size: 0x8, addend: 0x0, symName: _glad_glUniform3fv, symObjAddr: 0x191E0, symBinAddr: 0x1000188F0, symSize: 0x0 }
  - { offsetInCU: 0x3981, offset: 0x38833, size: 0x8, addend: 0x0, symName: _glad_glUniform3i, symObjAddr: 0x191E8, symBinAddr: 0x1000188F8, symSize: 0x0 }
  - { offsetInCU: 0x39BF, offset: 0x38871, size: 0x8, addend: 0x0, symName: _glad_glUniform3iv, symObjAddr: 0x191F0, symBinAddr: 0x100018900, symSize: 0x0 }
  - { offsetInCU: 0x39E2, offset: 0x38894, size: 0x8, addend: 0x0, symName: _glad_glUniform3ui, symObjAddr: 0x191F8, symBinAddr: 0x100018908, symSize: 0x0 }
  - { offsetInCU: 0x3A20, offset: 0x388D2, size: 0x8, addend: 0x0, symName: _glad_glUniform3uiv, symObjAddr: 0x19200, symBinAddr: 0x100018910, symSize: 0x0 }
  - { offsetInCU: 0x3A43, offset: 0x388F5, size: 0x8, addend: 0x0, symName: _glad_glUniform4f, symObjAddr: 0x19208, symBinAddr: 0x100018918, symSize: 0x0 }
  - { offsetInCU: 0x3A86, offset: 0x38938, size: 0x8, addend: 0x0, symName: _glad_glUniform4fv, symObjAddr: 0x19210, symBinAddr: 0x100018920, symSize: 0x0 }
  - { offsetInCU: 0x3AA9, offset: 0x3895B, size: 0x8, addend: 0x0, symName: _glad_glUniform4i, symObjAddr: 0x19218, symBinAddr: 0x100018928, symSize: 0x0 }
  - { offsetInCU: 0x3AEC, offset: 0x3899E, size: 0x8, addend: 0x0, symName: _glad_glUniform4iv, symObjAddr: 0x19220, symBinAddr: 0x100018930, symSize: 0x0 }
  - { offsetInCU: 0x3B0F, offset: 0x389C1, size: 0x8, addend: 0x0, symName: _glad_glUniform4ui, symObjAddr: 0x19228, symBinAddr: 0x100018938, symSize: 0x0 }
  - { offsetInCU: 0x3B52, offset: 0x38A04, size: 0x8, addend: 0x0, symName: _glad_glUniform4uiv, symObjAddr: 0x19230, symBinAddr: 0x100018940, symSize: 0x0 }
  - { offsetInCU: 0x3B75, offset: 0x38A27, size: 0x8, addend: 0x0, symName: _glad_glUniformBlockBinding, symObjAddr: 0x19238, symBinAddr: 0x100018948, symSize: 0x0 }
  - { offsetInCU: 0x3BAE, offset: 0x38A60, size: 0x8, addend: 0x0, symName: _glad_glUniformMatrix2fv, symObjAddr: 0x19240, symBinAddr: 0x100018950, symSize: 0x0 }
  - { offsetInCU: 0x3BEC, offset: 0x38A9E, size: 0x8, addend: 0x0, symName: _glad_glUniformMatrix2x3fv, symObjAddr: 0x19248, symBinAddr: 0x100018958, symSize: 0x0 }
  - { offsetInCU: 0x3C0F, offset: 0x38AC1, size: 0x8, addend: 0x0, symName: _glad_glUniformMatrix2x4fv, symObjAddr: 0x19250, symBinAddr: 0x100018960, symSize: 0x0 }
  - { offsetInCU: 0x3C32, offset: 0x38AE4, size: 0x8, addend: 0x0, symName: _glad_glUniformMatrix3fv, symObjAddr: 0x19258, symBinAddr: 0x100018968, symSize: 0x0 }
  - { offsetInCU: 0x3C55, offset: 0x38B07, size: 0x8, addend: 0x0, symName: _glad_glUniformMatrix3x2fv, symObjAddr: 0x19260, symBinAddr: 0x100018970, symSize: 0x0 }
  - { offsetInCU: 0x3C78, offset: 0x38B2A, size: 0x8, addend: 0x0, symName: _glad_glUniformMatrix3x4fv, symObjAddr: 0x19268, symBinAddr: 0x100018978, symSize: 0x0 }
  - { offsetInCU: 0x3C9B, offset: 0x38B4D, size: 0x8, addend: 0x0, symName: _glad_glUniformMatrix4fv, symObjAddr: 0x19270, symBinAddr: 0x100018980, symSize: 0x0 }
  - { offsetInCU: 0x3CBE, offset: 0x38B70, size: 0x8, addend: 0x0, symName: _glad_glUniformMatrix4x2fv, symObjAddr: 0x19278, symBinAddr: 0x100018988, symSize: 0x0 }
  - { offsetInCU: 0x3CE1, offset: 0x38B93, size: 0x8, addend: 0x0, symName: _glad_glUniformMatrix4x3fv, symObjAddr: 0x19280, symBinAddr: 0x100018990, symSize: 0x0 }
  - { offsetInCU: 0x3D04, offset: 0x38BB6, size: 0x8, addend: 0x0, symName: _glad_glUnmapBuffer, symObjAddr: 0x19288, symBinAddr: 0x100018998, symSize: 0x0 }
  - { offsetInCU: 0x3D27, offset: 0x38BD9, size: 0x8, addend: 0x0, symName: _glad_glUseProgram, symObjAddr: 0x19290, symBinAddr: 0x1000189A0, symSize: 0x0 }
  - { offsetInCU: 0x3D4A, offset: 0x38BFC, size: 0x8, addend: 0x0, symName: _glad_glValidateProgram, symObjAddr: 0x19298, symBinAddr: 0x1000189A8, symSize: 0x0 }
  - { offsetInCU: 0x3D6D, offset: 0x38C1F, size: 0x8, addend: 0x0, symName: _glad_glVertexAttrib1d, symObjAddr: 0x192A0, symBinAddr: 0x1000189B0, symSize: 0x0 }
  - { offsetInCU: 0x3DA1, offset: 0x38C53, size: 0x8, addend: 0x0, symName: _glad_glVertexAttrib1dv, symObjAddr: 0x192A8, symBinAddr: 0x1000189B8, symSize: 0x0 }
  - { offsetInCU: 0x3DDF, offset: 0x38C91, size: 0x8, addend: 0x0, symName: _glad_glVertexAttrib1f, symObjAddr: 0x192B0, symBinAddr: 0x1000189C0, symSize: 0x0 }
  - { offsetInCU: 0x3E13, offset: 0x38CC5, size: 0x8, addend: 0x0, symName: _glad_glVertexAttrib1fv, symObjAddr: 0x192B8, symBinAddr: 0x1000189C8, symSize: 0x0 }
  - { offsetInCU: 0x3E47, offset: 0x38CF9, size: 0x8, addend: 0x0, symName: _glad_glVertexAttrib1s, symObjAddr: 0x192C0, symBinAddr: 0x1000189D0, symSize: 0x0 }
  - { offsetInCU: 0x3E98, offset: 0x38D4A, size: 0x8, addend: 0x0, symName: _glad_glVertexAttrib1sv, symObjAddr: 0x192C8, symBinAddr: 0x1000189D8, symSize: 0x0 }
  - { offsetInCU: 0x3ED6, offset: 0x38D88, size: 0x8, addend: 0x0, symName: _glad_glVertexAttrib2d, symObjAddr: 0x192D0, symBinAddr: 0x1000189E0, symSize: 0x0 }
  - { offsetInCU: 0x3F0F, offset: 0x38DC1, size: 0x8, addend: 0x0, symName: _glad_glVertexAttrib2dv, symObjAddr: 0x192D8, symBinAddr: 0x1000189E8, symSize: 0x0 }
  - { offsetInCU: 0x3F32, offset: 0x38DE4, size: 0x8, addend: 0x0, symName: _glad_glVertexAttrib2f, symObjAddr: 0x192E0, symBinAddr: 0x1000189F0, symSize: 0x0 }
  - { offsetInCU: 0x3F6B, offset: 0x38E1D, size: 0x8, addend: 0x0, symName: _glad_glVertexAttrib2fv, symObjAddr: 0x192E8, symBinAddr: 0x1000189F8, symSize: 0x0 }
  - { offsetInCU: 0x3F8E, offset: 0x38E40, size: 0x8, addend: 0x0, symName: _glad_glVertexAttrib2s, symObjAddr: 0x192F0, symBinAddr: 0x100018A00, symSize: 0x0 }
  - { offsetInCU: 0x3FC7, offset: 0x38E79, size: 0x8, addend: 0x0, symName: _glad_glVertexAttrib2sv, symObjAddr: 0x192F8, symBinAddr: 0x100018A08, symSize: 0x0 }
  - { offsetInCU: 0x3FEA, offset: 0x38E9C, size: 0x8, addend: 0x0, symName: _glad_glVertexAttrib3d, symObjAddr: 0x19300, symBinAddr: 0x100018A10, symSize: 0x0 }
  - { offsetInCU: 0x4028, offset: 0x38EDA, size: 0x8, addend: 0x0, symName: _glad_glVertexAttrib3dv, symObjAddr: 0x19308, symBinAddr: 0x100018A18, symSize: 0x0 }
  - { offsetInCU: 0x404B, offset: 0x38EFD, size: 0x8, addend: 0x0, symName: _glad_glVertexAttrib3f, symObjAddr: 0x19310, symBinAddr: 0x100018A20, symSize: 0x0 }
  - { offsetInCU: 0x4089, offset: 0x38F3B, size: 0x8, addend: 0x0, symName: _glad_glVertexAttrib3fv, symObjAddr: 0x19318, symBinAddr: 0x100018A28, symSize: 0x0 }
  - { offsetInCU: 0x40AC, offset: 0x38F5E, size: 0x8, addend: 0x0, symName: _glad_glVertexAttrib3s, symObjAddr: 0x19320, symBinAddr: 0x100018A30, symSize: 0x0 }
  - { offsetInCU: 0x40EA, offset: 0x38F9C, size: 0x8, addend: 0x0, symName: _glad_glVertexAttrib3sv, symObjAddr: 0x19328, symBinAddr: 0x100018A38, symSize: 0x0 }
  - { offsetInCU: 0x410D, offset: 0x38FBF, size: 0x8, addend: 0x0, symName: _glad_glVertexAttrib4Nbv, symObjAddr: 0x19330, symBinAddr: 0x100018A40, symSize: 0x0 }
  - { offsetInCU: 0x4168, offset: 0x3901A, size: 0x8, addend: 0x0, symName: _glad_glVertexAttrib4Niv, symObjAddr: 0x19338, symBinAddr: 0x100018A48, symSize: 0x0 }
  - { offsetInCU: 0x419C, offset: 0x3904E, size: 0x8, addend: 0x0, symName: _glad_glVertexAttrib4Nsv, symObjAddr: 0x19340, symBinAddr: 0x100018A50, symSize: 0x0 }
  - { offsetInCU: 0x41BF, offset: 0x39071, size: 0x8, addend: 0x0, symName: _glad_glVertexAttrib4Nub, symObjAddr: 0x19348, symBinAddr: 0x100018A58, symSize: 0x0 }
  - { offsetInCU: 0x4202, offset: 0x390B4, size: 0x8, addend: 0x0, symName: _glad_glVertexAttrib4Nubv, symObjAddr: 0x19350, symBinAddr: 0x100018A60, symSize: 0x0 }
  - { offsetInCU: 0x4236, offset: 0x390E8, size: 0x8, addend: 0x0, symName: _glad_glVertexAttrib4Nuiv, symObjAddr: 0x19358, symBinAddr: 0x100018A68, symSize: 0x0 }
  - { offsetInCU: 0x426A, offset: 0x3911C, size: 0x8, addend: 0x0, symName: _glad_glVertexAttrib4Nusv, symObjAddr: 0x19360, symBinAddr: 0x100018A70, symSize: 0x0 }
  - { offsetInCU: 0x42C5, offset: 0x39177, size: 0x8, addend: 0x0, symName: _glad_glVertexAttrib4bv, symObjAddr: 0x19368, symBinAddr: 0x100018A78, symSize: 0x0 }
  - { offsetInCU: 0x42E8, offset: 0x3919A, size: 0x8, addend: 0x0, symName: _glad_glVertexAttrib4d, symObjAddr: 0x19370, symBinAddr: 0x100018A80, symSize: 0x0 }
  - { offsetInCU: 0x432B, offset: 0x391DD, size: 0x8, addend: 0x0, symName: _glad_glVertexAttrib4dv, symObjAddr: 0x19378, symBinAddr: 0x100018A88, symSize: 0x0 }
  - { offsetInCU: 0x434E, offset: 0x39200, size: 0x8, addend: 0x0, symName: _glad_glVertexAttrib4f, symObjAddr: 0x19380, symBinAddr: 0x100018A90, symSize: 0x0 }
  - { offsetInCU: 0x4391, offset: 0x39243, size: 0x8, addend: 0x0, symName: _glad_glVertexAttrib4fv, symObjAddr: 0x19388, symBinAddr: 0x100018A98, symSize: 0x0 }
  - { offsetInCU: 0x43B4, offset: 0x39266, size: 0x8, addend: 0x0, symName: _glad_glVertexAttrib4iv, symObjAddr: 0x19390, symBinAddr: 0x100018AA0, symSize: 0x0 }
  - { offsetInCU: 0x43D7, offset: 0x39289, size: 0x8, addend: 0x0, symName: _glad_glVertexAttrib4s, symObjAddr: 0x19398, symBinAddr: 0x100018AA8, symSize: 0x0 }
  - { offsetInCU: 0x441A, offset: 0x392CC, size: 0x8, addend: 0x0, symName: _glad_glVertexAttrib4sv, symObjAddr: 0x193A0, symBinAddr: 0x100018AB0, symSize: 0x0 }
  - { offsetInCU: 0x443D, offset: 0x392EF, size: 0x8, addend: 0x0, symName: _glad_glVertexAttrib4ubv, symObjAddr: 0x193A8, symBinAddr: 0x100018AB8, symSize: 0x0 }
  - { offsetInCU: 0x4460, offset: 0x39312, size: 0x8, addend: 0x0, symName: _glad_glVertexAttrib4uiv, symObjAddr: 0x193B0, symBinAddr: 0x100018AC0, symSize: 0x0 }
  - { offsetInCU: 0x4483, offset: 0x39335, size: 0x8, addend: 0x0, symName: _glad_glVertexAttrib4usv, symObjAddr: 0x193B8, symBinAddr: 0x100018AC8, symSize: 0x0 }
  - { offsetInCU: 0x44A6, offset: 0x39358, size: 0x8, addend: 0x0, symName: _glad_glVertexAttribDivisor, symObjAddr: 0x193C0, symBinAddr: 0x100018AD0, symSize: 0x0 }
  - { offsetInCU: 0x44C9, offset: 0x3937B, size: 0x8, addend: 0x0, symName: _glad_glVertexAttribI1i, symObjAddr: 0x193C8, symBinAddr: 0x100018AD8, symSize: 0x0 }
  - { offsetInCU: 0x44FD, offset: 0x393AF, size: 0x8, addend: 0x0, symName: _glad_glVertexAttribI1iv, symObjAddr: 0x193D0, symBinAddr: 0x100018AE0, symSize: 0x0 }
  - { offsetInCU: 0x4520, offset: 0x393D2, size: 0x8, addend: 0x0, symName: _glad_glVertexAttribI1ui, symObjAddr: 0x193D8, symBinAddr: 0x100018AE8, symSize: 0x0 }
  - { offsetInCU: 0x4543, offset: 0x393F5, size: 0x8, addend: 0x0, symName: _glad_glVertexAttribI1uiv, symObjAddr: 0x193E0, symBinAddr: 0x100018AF0, symSize: 0x0 }
  - { offsetInCU: 0x4566, offset: 0x39418, size: 0x8, addend: 0x0, symName: _glad_glVertexAttribI2i, symObjAddr: 0x193E8, symBinAddr: 0x100018AF8, symSize: 0x0 }
  - { offsetInCU: 0x459F, offset: 0x39451, size: 0x8, addend: 0x0, symName: _glad_glVertexAttribI2iv, symObjAddr: 0x193F0, symBinAddr: 0x100018B00, symSize: 0x0 }
  - { offsetInCU: 0x45C2, offset: 0x39474, size: 0x8, addend: 0x0, symName: _glad_glVertexAttribI2ui, symObjAddr: 0x193F8, symBinAddr: 0x100018B08, symSize: 0x0 }
  - { offsetInCU: 0x45E5, offset: 0x39497, size: 0x8, addend: 0x0, symName: _glad_glVertexAttribI2uiv, symObjAddr: 0x19400, symBinAddr: 0x100018B10, symSize: 0x0 }
  - { offsetInCU: 0x4608, offset: 0x394BA, size: 0x8, addend: 0x0, symName: _glad_glVertexAttribI3i, symObjAddr: 0x19408, symBinAddr: 0x100018B18, symSize: 0x0 }
  - { offsetInCU: 0x4646, offset: 0x394F8, size: 0x8, addend: 0x0, symName: _glad_glVertexAttribI3iv, symObjAddr: 0x19410, symBinAddr: 0x100018B20, symSize: 0x0 }
  - { offsetInCU: 0x4669, offset: 0x3951B, size: 0x8, addend: 0x0, symName: _glad_glVertexAttribI3ui, symObjAddr: 0x19418, symBinAddr: 0x100018B28, symSize: 0x0 }
  - { offsetInCU: 0x46A7, offset: 0x39559, size: 0x8, addend: 0x0, symName: _glad_glVertexAttribI3uiv, symObjAddr: 0x19420, symBinAddr: 0x100018B30, symSize: 0x0 }
  - { offsetInCU: 0x46CA, offset: 0x3957C, size: 0x8, addend: 0x0, symName: _glad_glVertexAttribI4bv, symObjAddr: 0x19428, symBinAddr: 0x100018B38, symSize: 0x0 }
  - { offsetInCU: 0x46ED, offset: 0x3959F, size: 0x8, addend: 0x0, symName: _glad_glVertexAttribI4i, symObjAddr: 0x19430, symBinAddr: 0x100018B40, symSize: 0x0 }
  - { offsetInCU: 0x4730, offset: 0x395E2, size: 0x8, addend: 0x0, symName: _glad_glVertexAttribI4iv, symObjAddr: 0x19438, symBinAddr: 0x100018B48, symSize: 0x0 }
  - { offsetInCU: 0x4753, offset: 0x39605, size: 0x8, addend: 0x0, symName: _glad_glVertexAttribI4sv, symObjAddr: 0x19440, symBinAddr: 0x100018B50, symSize: 0x0 }
  - { offsetInCU: 0x4776, offset: 0x39628, size: 0x8, addend: 0x0, symName: _glad_glVertexAttribI4ubv, symObjAddr: 0x19448, symBinAddr: 0x100018B58, symSize: 0x0 }
  - { offsetInCU: 0x4799, offset: 0x3964B, size: 0x8, addend: 0x0, symName: _glad_glVertexAttribI4ui, symObjAddr: 0x19450, symBinAddr: 0x100018B60, symSize: 0x0 }
  - { offsetInCU: 0x47DC, offset: 0x3968E, size: 0x8, addend: 0x0, symName: _glad_glVertexAttribI4uiv, symObjAddr: 0x19458, symBinAddr: 0x100018B68, symSize: 0x0 }
  - { offsetInCU: 0x47FF, offset: 0x396B1, size: 0x8, addend: 0x0, symName: _glad_glVertexAttribI4usv, symObjAddr: 0x19460, symBinAddr: 0x100018B70, symSize: 0x0 }
  - { offsetInCU: 0x4822, offset: 0x396D4, size: 0x8, addend: 0x0, symName: _glad_glVertexAttribIPointer, symObjAddr: 0x19468, symBinAddr: 0x100018B78, symSize: 0x0 }
  - { offsetInCU: 0x4865, offset: 0x39717, size: 0x8, addend: 0x0, symName: _glad_glVertexAttribP1ui, symObjAddr: 0x19470, symBinAddr: 0x100018B80, symSize: 0x0 }
  - { offsetInCU: 0x48A3, offset: 0x39755, size: 0x8, addend: 0x0, symName: _glad_glVertexAttribP1uiv, symObjAddr: 0x19478, symBinAddr: 0x100018B88, symSize: 0x0 }
  - { offsetInCU: 0x48E1, offset: 0x39793, size: 0x8, addend: 0x0, symName: _glad_glVertexAttribP2ui, symObjAddr: 0x19480, symBinAddr: 0x100018B90, symSize: 0x0 }
  - { offsetInCU: 0x4904, offset: 0x397B6, size: 0x8, addend: 0x0, symName: _glad_glVertexAttribP2uiv, symObjAddr: 0x19488, symBinAddr: 0x100018B98, symSize: 0x0 }
  - { offsetInCU: 0x4927, offset: 0x397D9, size: 0x8, addend: 0x0, symName: _glad_glVertexAttribP3ui, symObjAddr: 0x19490, symBinAddr: 0x100018BA0, symSize: 0x0 }
  - { offsetInCU: 0x494A, offset: 0x397FC, size: 0x8, addend: 0x0, symName: _glad_glVertexAttribP3uiv, symObjAddr: 0x19498, symBinAddr: 0x100018BA8, symSize: 0x0 }
  - { offsetInCU: 0x496D, offset: 0x3981F, size: 0x8, addend: 0x0, symName: _glad_glVertexAttribP4ui, symObjAddr: 0x194A0, symBinAddr: 0x100018BB0, symSize: 0x0 }
  - { offsetInCU: 0x4990, offset: 0x39842, size: 0x8, addend: 0x0, symName: _glad_glVertexAttribP4uiv, symObjAddr: 0x194A8, symBinAddr: 0x100018BB8, symSize: 0x0 }
  - { offsetInCU: 0x49B3, offset: 0x39865, size: 0x8, addend: 0x0, symName: _glad_glVertexAttribPointer, symObjAddr: 0x194B0, symBinAddr: 0x100018BC0, symSize: 0x0 }
  - { offsetInCU: 0x49FB, offset: 0x398AD, size: 0x8, addend: 0x0, symName: _glad_glVertexP2ui, symObjAddr: 0x194B8, symBinAddr: 0x100018BC8, symSize: 0x0 }
  - { offsetInCU: 0x4A1E, offset: 0x398D0, size: 0x8, addend: 0x0, symName: _glad_glVertexP2uiv, symObjAddr: 0x194C0, symBinAddr: 0x100018BD0, symSize: 0x0 }
  - { offsetInCU: 0x4A41, offset: 0x398F3, size: 0x8, addend: 0x0, symName: _glad_glVertexP3ui, symObjAddr: 0x194C8, symBinAddr: 0x100018BD8, symSize: 0x0 }
  - { offsetInCU: 0x4A64, offset: 0x39916, size: 0x8, addend: 0x0, symName: _glad_glVertexP3uiv, symObjAddr: 0x194D0, symBinAddr: 0x100018BE0, symSize: 0x0 }
  - { offsetInCU: 0x4A87, offset: 0x39939, size: 0x8, addend: 0x0, symName: _glad_glVertexP4ui, symObjAddr: 0x194D8, symBinAddr: 0x100018BE8, symSize: 0x0 }
  - { offsetInCU: 0x4AAA, offset: 0x3995C, size: 0x8, addend: 0x0, symName: _glad_glVertexP4uiv, symObjAddr: 0x194E0, symBinAddr: 0x100018BF0, symSize: 0x0 }
  - { offsetInCU: 0x4ACD, offset: 0x3997F, size: 0x8, addend: 0x0, symName: _glad_glViewport, symObjAddr: 0x194E8, symBinAddr: 0x100018BF8, symSize: 0x0 }
  - { offsetInCU: 0x4AF0, offset: 0x399A2, size: 0x8, addend: 0x0, symName: _glad_glWaitSync, symObjAddr: 0x194F0, symBinAddr: 0x100018C00, symSize: 0x0 }
  - { offsetInCU: 0x4B28, offset: 0x399DA, size: 0x8, addend: 0x0, symName: __ZL7open_glv, symObjAddr: 0x4C, symBinAddr: 0x10000DC50, symSize: 0x9C }
  - { offsetInCU: 0x4B52, offset: 0x39A04, size: 0x8, addend: 0x0, symName: __ZZL7open_glvE5NAMES, symObjAddr: 0x4E50, symBinAddr: 0x100018000, symSize: 0x0 }
  - { offsetInCU: 0x4B89, offset: 0x39A3B, size: 0x8, addend: 0x0, symName: __ZL5libGL, symObjAddr: 0x194F8, symBinAddr: 0x100018C08, symSize: 0x0 }
  - { offsetInCU: 0x4BA3, offset: 0x39A55, size: 0x8, addend: 0x0, symName: __ZL16max_loaded_major, symObjAddr: 0x19500, symBinAddr: 0x100018C10, symSize: 0x0 }
  - { offsetInCU: 0x4BBD, offset: 0x39A6F, size: 0x8, addend: 0x0, symName: __ZL16max_loaded_minor, symObjAddr: 0x19504, symBinAddr: 0x100018C14, symSize: 0x0 }
  - { offsetInCU: 0x4BD7, offset: 0x39A89, size: 0x8, addend: 0x0, symName: __ZL4exts, symObjAddr: 0x19508, symBinAddr: 0x100018C18, symSize: 0x0 }
  - { offsetInCU: 0x4BF1, offset: 0x39AA3, size: 0x8, addend: 0x0, symName: __ZL10num_exts_i, symObjAddr: 0x19510, symBinAddr: 0x100018C20, symSize: 0x0 }
  - { offsetInCU: 0x4C0B, offset: 0x39ABD, size: 0x8, addend: 0x0, symName: __ZL6exts_i, symObjAddr: 0x19518, symBinAddr: 0x100018C28, symSize: 0x0 }
  - { offsetInCU: 0x4C2A, offset: 0x39ADC, size: 0x8, addend: 0x0, symName: _gladLoadGL, symObjAddr: 0x0, symBinAddr: 0x10000DC04, symSize: 0x4C }
  - { offsetInCU: 0x4C54, offset: 0x39B06, size: 0x8, addend: 0x0, symName: _gladLoadGLLoader, symObjAddr: 0xE8, symBinAddr: 0x10000DCEC, symSize: 0x15C }
  - { offsetInCU: 0x4C7F, offset: 0x39B31, size: 0x8, addend: 0x0, symName: __ZL8get_procPKc, symObjAddr: 0x244, symBinAddr: 0x10000DE48, symSize: 0x7C }
  - { offsetInCU: 0x4CBB, offset: 0x39B6D, size: 0x8, addend: 0x0, symName: __ZL8close_glv, symObjAddr: 0x2C0, symBinAddr: 0x10000DEC4, symSize: 0x4C }
  - { offsetInCU: 0x4CD5, offset: 0x39B87, size: 0x8, addend: 0x0, symName: __ZL11find_coreGLv, symObjAddr: 0x30C, symBinAddr: 0x10000DF10, symSize: 0x5CC }
  - { offsetInCU: 0x4D5C, offset: 0x39C0E, size: 0x8, addend: 0x0, symName: __ZL19load_GL_VERSION_1_0PFPvPKcE, symObjAddr: 0x8D8, symBinAddr: 0x10000E4DC, symSize: 0x4BC }
  - { offsetInCU: 0x4D87, offset: 0x39C39, size: 0x8, addend: 0x0, symName: __ZL19load_GL_VERSION_1_1PFPvPKcE, symObjAddr: 0xD94, symBinAddr: 0x10000E998, symSize: 0x174 }
  - { offsetInCU: 0x4DB2, offset: 0x39C64, size: 0x8, addend: 0x0, symName: __ZL19load_GL_VERSION_1_2PFPvPKcE, symObjAddr: 0xF08, symBinAddr: 0x10000EB0C, symSize: 0x9C }
  - { offsetInCU: 0x4DDD, offset: 0x39C8F, size: 0x8, addend: 0x0, symName: __ZL19load_GL_VERSION_1_3PFPvPKcE, symObjAddr: 0xFA4, symBinAddr: 0x10000EBA8, symSize: 0x114 }
  - { offsetInCU: 0x4E08, offset: 0x39CBA, size: 0x8, addend: 0x0, symName: __ZL19load_GL_VERSION_1_4PFPvPKcE, symObjAddr: 0x10B8, symBinAddr: 0x10000ECBC, symSize: 0x114 }
  - { offsetInCU: 0x4E33, offset: 0x39CE5, size: 0x8, addend: 0x0, symName: __ZL19load_GL_VERSION_1_5PFPvPKcE, symObjAddr: 0x11CC, symBinAddr: 0x10000EDD0, symSize: 0x204 }
  - { offsetInCU: 0x4E5E, offset: 0x39D10, size: 0x8, addend: 0x0, symName: __ZL19load_GL_VERSION_2_0PFPvPKcE, symObjAddr: 0x13D0, symBinAddr: 0x10000EFD4, symSize: 0x8F4 }
  - { offsetInCU: 0x4E89, offset: 0x39D3B, size: 0x8, addend: 0x0, symName: __ZL19load_GL_VERSION_2_1PFPvPKcE, symObjAddr: 0x1CC4, symBinAddr: 0x10000F8C8, symSize: 0xCC }
  - { offsetInCU: 0x4EB4, offset: 0x39D66, size: 0x8, addend: 0x0, symName: __ZL19load_GL_VERSION_3_0PFPvPKcE, symObjAddr: 0x1D90, symBinAddr: 0x10000F994, symSize: 0x81C }
  - { offsetInCU: 0x4EDF, offset: 0x39D91, size: 0x8, addend: 0x0, symName: __ZL19load_GL_VERSION_3_1PFPvPKcE, symObjAddr: 0x25AC, symBinAddr: 0x1000101B0, symSize: 0x1A4 }
  - { offsetInCU: 0x4F0A, offset: 0x39DBC, size: 0x8, addend: 0x0, symName: __ZL19load_GL_VERSION_3_2PFPvPKcE, symObjAddr: 0x2750, symBinAddr: 0x100010354, symSize: 0x204 }
  - { offsetInCU: 0x4F35, offset: 0x39DE7, size: 0x8, addend: 0x0, symName: __ZL19load_GL_VERSION_3_3PFPvPKcE, symObjAddr: 0x2954, symBinAddr: 0x100010558, symSize: 0x5AC }
  - { offsetInCU: 0x4F60, offset: 0x39E12, size: 0x8, addend: 0x0, symName: __ZL17find_extensionsGLv, symObjAddr: 0x2F00, symBinAddr: 0x100010B04, symSize: 0x48 }
  - { offsetInCU: 0x4F7F, offset: 0x39E31, size: 0x8, addend: 0x0, symName: __ZL8get_extsv, symObjAddr: 0x2F48, symBinAddr: 0x100010B4C, symSize: 0x18C }
  - { offsetInCU: 0x4FF8, offset: 0x39EAA, size: 0x8, addend: 0x0, symName: __ZL7has_extPKc, symObjAddr: 0x30D4, symBinAddr: 0x100010CD8, symSize: 0x1F4 }
  - { offsetInCU: 0x509D, offset: 0x39F4F, size: 0x8, addend: 0x0, symName: __ZL9free_extsv, symObjAddr: 0x32C8, symBinAddr: 0x100010ECC, symSize: 0x98 }
  - { offsetInCU: 0x50D6, offset: 0x39F88, size: 0x8, addend: 0x0, symName: __Z6strstrB8ue170006Ua9enable_ifIXLb1EEEPKcS0_, symObjAddr: 0x3360, symBinAddr: 0x100010F64, symSize: 0x2C }
...
